	.file	"parser.c"
	.text
.Ltext0:
	.local	global_scope
	.comm	global_scope,16,16
	.section	.data.rel.local,"aw"
	.align 8
	.type	scopes, @object
	.size	scopes, 8
scopes:
	.quad	global_scope
	.local	locals
	.comm	locals,8,8
	.local	globals
	.comm	globals,8,8
	.text
	.type	enter_scope, @function
enter_scope:
.LFB6:
	.file 1 "parser.c"
	.loc 1 42 31
	.cfi_startproc
	endbr64
	pushq	%rbp
	.cfi_def_cfa_offset 16
	.cfi_offset 6, -16
	movq	%rsp, %rbp
	.cfi_def_cfa_register 6
	subq	$16, %rsp
	.loc 1 43 15
	movl	$16, %edi
	call	malloc@PLT
	movq	%rax, -8(%rbp)
	.loc 1 44 12
	movq	-8(%rbp), %rax
	movq	$0, 8(%rax)
	.loc 1 45 12
	movq	scopes(%rip), %rdx
	movq	-8(%rbp), %rax
	movq	%rdx, (%rax)
	.loc 1 46 10
	movq	-8(%rbp), %rax
	movq	%rax, scopes(%rip)
	.loc 1 47 1
	nop
	leave
	.cfi_def_cfa 7, 8
	ret
	.cfi_endproc
.LFE6:
	.size	enter_scope, .-enter_scope
	.type	free_scope, @function
free_scope:
.LFB7:
	.loc 1 50 1
	.cfi_startproc
	endbr64
	pushq	%rbp
	.cfi_def_cfa_offset 16
	.cfi_offset 6, -16
	movq	%rsp, %rbp
	.cfi_def_cfa_register 6
	subq	$32, %rsp
	movq	%rdi, -24(%rbp)
	.loc 1 51 13
	movq	-24(%rbp), %rax
	movq	8(%rax), %rax
	movq	%rax, -16(%rbp)
	.loc 1 52 8
	jmp	.L3
.L4:
.LBB2:
	.loc 1 54 15
	movq	-16(%rbp), %rax
	movq	%rax, -8(%rbp)
	.loc 1 55 15
	movq	-16(%rbp), %rax
	movq	(%rax), %rax
	movq	%rax, -16(%rbp)
	.loc 1 56 5
	movq	-8(%rbp), %rax
	movq	%rax, %rdi
	call	free@PLT
.L3:
.LBE2:
	.loc 1 52 8
	cmpq	$0, -16(%rbp)
	jne	.L4
	.loc 1 58 3
	movq	-24(%rbp), %rax
	movq	%rax, %rdi
	call	free@PLT
	.loc 1 59 1
	nop
	leave
	.cfi_def_cfa 7, 8
	ret
	.cfi_endproc
.LFE7:
	.size	free_scope, .-free_scope
	.type	leave_scope, @function
leave_scope:
.LFB8:
	.loc 1 61 31
	.cfi_startproc
	endbr64
	pushq	%rbp
	.cfi_def_cfa_offset 16
	.cfi_offset 6, -16
	movq	%rsp, %rbp
	.cfi_def_cfa_register 6
	subq	$16, %rsp
	.loc 1 62 10
	movq	scopes(%rip), %rax
	movq	%rax, -8(%rbp)
	.loc 1 63 18
	movq	scopes(%rip), %rax
	movq	(%rax), %rax
	.loc 1 63 10
	movq	%rax, scopes(%rip)
	.loc 1 64 3
	movq	-8(%rbp), %rax
	movq	%rax, %rdi
	call	free_scope
	.loc 1 65 1
	nop
	leave
	.cfi_def_cfa 7, 8
	ret
	.cfi_endproc
.LFE8:
	.size	leave_scope, .-leave_scope
	.type	find_var, @function
find_var:
.LFB9:
	.loc 1 68 46
	.cfi_startproc
	endbr64
	pushq	%rbp
	.cfi_def_cfa_offset 16
	.cfi_offset 6, -16
	movq	%rsp, %rbp
	.cfi_def_cfa_register 6
	subq	$32, %rsp
	movq	%rdi, -24(%rbp)
.LBB3:
	.loc 1 69 15
	movq	scopes(%rip), %rax
	movq	%rax, -16(%rbp)
	.loc 1 69 3
	jmp	.L7
.L12:
.LBB4:
	.loc 1 70 26
	movq	-16(%rbp), %rax
	movq	8(%rax), %rax
	movq	%rax, -8(%rbp)
	.loc 1 70 5
	jmp	.L8
.L11:
	.loc 1 71 25
	movq	-8(%rbp), %rax
	movq	8(%rax), %rax
	.loc 1 71 11
	movq	8(%rax), %rdx
	movq	-24(%rbp), %rax
	movq	%rdx, %rsi
	movq	%rax, %rdi
	call	equal@PLT
	.loc 1 71 10
	testb	%al, %al
	je	.L9
	.loc 1 72 19
	movq	-8(%rbp), %rax
	movq	8(%rax), %rax
	jmp	.L10
.L9:
	.loc 1 70 51 discriminator 2
	movq	-8(%rbp), %rax
	movq	(%rax), %rax
	movq	%rax, -8(%rbp)
.L8:
	.loc 1 70 5 discriminator 1
	cmpq	$0, -8(%rbp)
	jne	.L11
.LBE4:
	.loc 1 69 35 discriminator 2
	movq	-16(%rbp), %rax
	movq	(%rax), %rax
	movq	%rax, -16(%rbp)
.L7:
	.loc 1 69 3 discriminator 1
	cmpq	$0, -16(%rbp)
	jne	.L12
.LBE3:
	.loc 1 76 10
	movl	$0, %eax
.L10:
	.loc 1 77 1
	leave
	.cfi_def_cfa 7, 8
	ret
	.cfi_endproc
.LFE9:
	.size	find_var, .-find_var
	.type	push_scope, @function
push_scope:
.LFB10:
	.loc 1 79 39
	.cfi_startproc
	endbr64
	pushq	%rbp
	.cfi_def_cfa_offset 16
	.cfi_offset 6, -16
	movq	%rsp, %rbp
	.cfi_def_cfa_register 6
	subq	$32, %rsp
	movq	%rdi, -24(%rbp)
	.loc 1 80 18
	movl	$16, %edi
	call	malloc@PLT
	movq	%rax, -8(%rbp)
	.loc 1 81 11
	movq	-8(%rbp), %rax
	movq	-24(%rbp), %rdx
	movq	%rdx, 8(%rax)
	.loc 1 82 20
	movq	scopes(%rip), %rax
	movq	8(%rax), %rdx
	.loc 1 82 12
	movq	-8(%rbp), %rax
	movq	%rdx, (%rax)
	.loc 1 83 9
	movq	scopes(%rip), %rax
	.loc 1 83 16
	movq	-8(%rbp), %rdx
	movq	%rdx, 8(%rax)
	.loc 1 84 10
	movq	-8(%rbp), %rax
	.loc 1 85 1
	leave
	.cfi_def_cfa 7, 8
	ret
	.cfi_endproc
.LFE10:
	.size	push_scope, .-push_scope
	.type	new_var, @function
new_var:
.LFB11:
	.loc 1 87 60
	.cfi_startproc
	endbr64
	pushq	%rbp
	.cfi_def_cfa_offset 16
	.cfi_offset 6, -16
	movq	%rsp, %rbp
	.cfi_def_cfa_register 6
	subq	$48, %rsp
	movq	%rdi, -24(%rbp)
	movq	%rsi, -32(%rbp)
	movl	%edx, -36(%rbp)
	.loc 1 88 14
	movl	$88, %esi
	movl	$1, %edi
	call	calloc@PLT
	movq	%rax, -8(%rbp)
	.loc 1 89 13
	movq	-8(%rbp), %rax
	movq	-32(%rbp), %rdx
	movq	%rdx, 8(%rax)
	.loc 1 90 20
	movq	-8(%rbp), %rax
	movl	-36(%rbp), %edx
	movl	%edx, 16(%rax)
	.loc 1 91 13
	movq	-8(%rbp), %rax
	movq	-24(%rbp), %rdx
	movq	%rdx, 24(%rax)
	.loc 1 92 3
	movq	-8(%rbp), %rax
	movq	%rax, %rdi
	call	push_scope
	.loc 1 93 10
	movq	-8(%rbp), %rax
	.loc 1 94 1
	leave
	.cfi_def_cfa 7, 8
	ret
	.cfi_endproc
.LFE11:
	.size	new_var, .-new_var
	.type	new_lvar, @function
new_lvar:
.LFB12:
	.loc 1 96 66
	.cfi_startproc
	endbr64
	pushq	%rbp
	.cfi_def_cfa_offset 16
	.cfi_offset 6, -16
	movq	%rsp, %rbp
	.cfi_def_cfa_register 6
	subq	$48, %rsp
	movq	%rdi, -24(%rbp)
	movq	%rsi, -32(%rbp)
	movl	%edx, -36(%rbp)
	.loc 1 97 14
	movl	-36(%rbp), %edx
	movq	-32(%rbp), %rcx
	movq	-24(%rbp), %rax
	movq	%rcx, %rsi
	movq	%rax, %rdi
	call	new_var
	movq	%rax, -8(%rbp)
	.loc 1 98 17
	movq	-8(%rbp), %rax
	movb	$1, 32(%rax)
	.loc 1 99 13
	movq	locals(%rip), %rdx
	movq	-8(%rbp), %rax
	movq	%rdx, (%rax)
	.loc 1 100 10
	movq	-8(%rbp), %rax
	movq	%rax, locals(%rip)
	.loc 1 101 10
	movq	-8(%rbp), %rax
	.loc 1 102 1
	leave
	.cfi_def_cfa 7, 8
	ret
	.cfi_endproc
.LFE12:
	.size	new_lvar, .-new_lvar
	.type	new_gvar, @function
new_gvar:
.LFB13:
	.loc 1 103 66
	.cfi_startproc
	endbr64
	pushq	%rbp
	.cfi_def_cfa_offset 16
	.cfi_offset 6, -16
	movq	%rsp, %rbp
	.cfi_def_cfa_register 6
	subq	$48, %rsp
	movq	%rdi, -24(%rbp)
	movq	%rsi, -32(%rbp)
	movl	%edx, -36(%rbp)
	.loc 1 104 14
	movl	-36(%rbp), %edx
	movq	-32(%rbp), %rcx
	movq	-24(%rbp), %rax
	movq	%rcx, %rsi
	movq	%rax, %rdi
	call	new_var
	movq	%rax, -8(%rbp)
	.loc 1 105 13
	movq	globals(%rip), %rdx
	movq	-8(%rbp), %rax
	movq	%rdx, (%rax)
	.loc 1 106 11
	movq	-8(%rbp), %rax
	movq	%rax, globals(%rip)
	.loc 1 107 10
	movq	-8(%rbp), %rax
	.loc 1 108 1
	leave
	.cfi_def_cfa 7, 8
	ret
	.cfi_endproc
.LFE13:
	.size	new_gvar, .-new_gvar
	.section	.rodata
.LC0:
	.string	".L..%d"
	.text
	.type	new_unique_name, @function
new_unique_name:
.LFB14:
	.loc 1 110 32
	.cfi_startproc
	endbr64
	pushq	%rbp
	.cfi_def_cfa_offset 16
	.cfi_offset 6, -16
	movq	%rsp, %rbp
	.cfi_def_cfa_register 6
	.loc 1 112 10
	movl	id.3512(%rip), %eax
	leal	1(%rax), %edx
	movl	%edx, id.3512(%rip)
	movl	%eax, %esi
	leaq	.LC0(%rip), %rdi
	movl	$0, %eax
	call	format@PLT
	.loc 1 113 1
	popq	%rbp
	.cfi_def_cfa 7, 8
	ret
	.cfi_endproc
.LFE14:
	.size	new_unique_name, .-new_unique_name
	.type	new_anon_gvar, @function
new_anon_gvar:
.LFB15:
	.loc 1 115 39
	.cfi_startproc
	endbr64
	pushq	%rbp
	.cfi_def_cfa_offset 16
	.cfi_offset 6, -16
	movq	%rsp, %rbp
	.cfi_def_cfa_register 6
	subq	$32, %rsp
	movq	%rdi, -24(%rbp)
	.loc 1 116 23
	movl	$0, %eax
	call	new_unique_name
	movq	%rax, -8(%rbp)
	.loc 1 117 38
	movq	-8(%rbp), %rax
	movq	%rax, %rdi
	call	strlen@PLT
	.loc 1 117 10
	movl	%eax, %edx
	movq	-8(%rbp), %rcx
	movq	-24(%rbp), %rax
	movq	%rcx, %rsi
	movq	%rax, %rdi
	call	new_gvar
	.loc 1 118 1
	leave
	.cfi_def_cfa 7, 8
	ret
	.cfi_endproc
.LFE15:
	.size	new_anon_gvar, .-new_anon_gvar
	.type	new_string_literal, @function
new_string_literal:
.LFB16:
	.loc 1 119 55
	.cfi_startproc
	endbr64
	pushq	%rbp
	.cfi_def_cfa_offset 16
	.cfi_offset 6, -16
	movq	%rsp, %rbp
	.cfi_def_cfa_register 6
	subq	$32, %rsp
	movq	%rdi, -24(%rbp)
	movq	%rsi, -32(%rbp)
	.loc 1 120 14
	movq	-32(%rbp), %rax
	movq	%rax, %rdi
	call	new_anon_gvar
	movq	%rax, -8(%rbp)
	.loc 1 121 18
	movq	-8(%rbp), %rax
	movq	-24(%rbp), %rdx
	movq	%rdx, 48(%rax)
	.loc 1 122 10
	movq	-8(%rbp), %rax
	.loc 1 123 1
	leave
	.cfi_def_cfa 7, 8
	ret
	.cfi_endproc
.LFE16:
	.size	new_string_literal, .-new_string_literal
	.section	.rodata
.LC1:
	.string	"expected an identifier"
	.text
	.type	get_ident, @function
get_ident:
.LFB17:
	.loc 1 125 48
	.cfi_startproc
	endbr64
	pushq	%rbp
	.cfi_def_cfa_offset 16
	.cfi_offset 6, -16
	movq	%rsp, %rbp
	.cfi_def_cfa_register 6
	subq	$16, %rsp
	movq	%rdi, -8(%rbp)
	.loc 1 126 10
	movq	-8(%rbp), %rax
	movl	(%rax), %eax
	.loc 1 126 6
	cmpl	$35, %eax
	je	.L28
	.loc 1 127 5
	movq	-8(%rbp), %rax
	leaq	.LC1(%rip), %rsi
	movq	%rax, %rdi
	movl	$0, %eax
	call	error_tok@PLT
.L28:
	.loc 1 129 31
	movq	-8(%rbp), %rax
	movl	32(%rax), %eax
	.loc 1 129 10
	movslq	%eax, %rdx
	movq	-8(%rbp), %rax
	movq	24(%rax), %rax
	movq	%rdx, %rsi
	movq	%rax, %rdi
	call	strndup@PLT
	.loc 1 130 1
	leave
	.cfi_def_cfa 7, 8
	ret
	.cfi_endproc
.LFE17:
	.size	get_ident, .-get_ident
	.section	.rodata
.LC2:
	.string	"expected a number"
	.text
	.type	get_number, @function
get_number:
.LFB18:
	.loc 1 132 41
	.cfi_startproc
	endbr64
	pushq	%rbp
	.cfi_def_cfa_offset 16
	.cfi_offset 6, -16
	movq	%rsp, %rbp
	.cfi_def_cfa_register 6
	subq	$16, %rsp
	movq	%rdi, -8(%rbp)
	.loc 1 133 10
	movq	-8(%rbp), %rax
	movl	(%rax), %eax
	.loc 1 133 6
	cmpl	$37, %eax
	je	.L31
	.loc 1 134 5
	movq	-8(%rbp), %rax
	leaq	.LC2(%rip), %rsi
	movq	%rax, %rdi
	movl	$0, %eax
	call	error_tok@PLT
.L31:
	.loc 1 136 13
	movq	-8(%rbp), %rax
	movl	16(%rax), %eax
	.loc 1 137 1
	leave
	.cfi_def_cfa 7, 8
	ret
	.cfi_endproc
.LFE18:
	.size	get_number, .-get_number
	.type	declspec, @function
declspec:
.LFB19:
	.loc 1 140 61
	.cfi_startproc
	endbr64
	pushq	%rbp
	.cfi_def_cfa_offset 16
	.cfi_offset 6, -16
	movq	%rsp, %rbp
	.cfi_def_cfa_register 6
	subq	$16, %rsp
	movq	%rdi, -8(%rbp)
	movq	%rsi, -16(%rbp)
	.loc 1 141 7
	movq	-16(%rbp), %rcx
	movq	-8(%rbp), %rax
	movl	$6, %edx
	movq	%rcx, %rsi
	movq	%rax, %rdi
	call	match@PLT
	.loc 1 141 6
	testb	%al, %al
	je	.L34
	.loc 1 142 12
	movl	$0, %eax
	call	char_type@PLT
	jmp	.L35
.L34:
	.loc 1 144 11
	movq	-16(%rbp), %rax
	movl	$5, %esi
	movq	%rax, %rdi
	call	consume@PLT
	.loc 1 144 9
	movq	-8(%rbp), %rdx
	movq	%rax, (%rdx)
	.loc 1 145 10
	movl	$0, %eax
	call	int_type@PLT
.L35:
	.loc 1 146 1
	leave
	.cfi_def_cfa 7, 8
	ret
	.cfi_endproc
.LFE19:
	.size	declspec, .-declspec
	.type	func_params, @function
func_params:
.LFB20:
	.loc 1 151 45
	.cfi_startproc
	endbr64
	pushq	%rbp
	.cfi_def_cfa_offset 16
	.cfi_offset 6, -16
	movq	%rsp, %rbp
	.cfi_def_cfa_register 6
	addq	$-128, %rsp
	movq	%rdi, -104(%rbp)
	movq	%rsi, -112(%rbp)
	movq	%rdx, -120(%rbp)
	.loc 1 151 45
	movq	%fs:40, %rax
	movq	%rax, -8(%rbp)
	xorl	%eax, %eax
	.loc 1 152 8
	movq	$0, -64(%rbp)
	movq	$0, -56(%rbp)
	movq	$0, -48(%rbp)
	movq	$0, -40(%rbp)
	movq	$0, -32(%rbp)
	movq	$0, -24(%rbp)
	movq	$0, -16(%rbp)
	.loc 1 153 9
	leaq	-64(%rbp), %rax
	movq	%rax, -96(%rbp)
	.loc 1 155 9
	jmp	.L37
.L39:
.LBB5:
	.loc 1 156 8
	leaq	-64(%rbp), %rax
	cmpq	%rax, -96(%rbp)
	je	.L38
	.loc 1 157 13
	movq	-112(%rbp), %rax
	movl	$15, %esi
	movq	%rax, %rdi
	call	consume@PLT
	.loc 1 157 11
	movq	%rax, -112(%rbp)
.L38:
	.loc 1 160 23
	movq	-112(%rbp), %rdx
	leaq	-112(%rbp), %rax
	movq	%rdx, %rsi
	movq	%rax, %rdi
	call	declspec
	movq	%rax, -80(%rbp)
	.loc 1 161 18
	movq	-112(%rbp), %rcx
	movq	-80(%rbp), %rdx
	leaq	-112(%rbp), %rax
	movq	%rcx, %rsi
	movq	%rax, %rdi
	call	declarator
	movq	%rax, -72(%rbp)
	.loc 1 162 21
	movq	-96(%rbp), %rax
	movq	-72(%rbp), %rdx
	movq	%rdx, 48(%rax)
	.loc 1 162 9
	movq	-96(%rbp), %rax
	movq	48(%rax), %rax
	movq	%rax, -96(%rbp)
.L37:
.LBE5:
	.loc 1 155 11
	movq	-112(%rbp), %rax
	movl	$12, %esi
	movq	%rax, %rdi
	call	check@PLT
	.loc 1 155 10
	xorl	$1, %eax
	.loc 1 155 9
	testb	%al, %al
	jne	.L39
	.loc 1 165 16
	movq	-120(%rbp), %rax
	movq	%rax, %rdi
	call	func_type@PLT
	movq	%rax, -88(%rbp)
	.loc 1 166 22
	movq	-16(%rbp), %rdx
	.loc 1 166 16
	movq	-88(%rbp), %rax
	movq	%rdx, 40(%rax)
	.loc 1 167 14
	movq	-112(%rbp), %rax
	movq	8(%rax), %rdx
	.loc 1 167 9
	movq	-104(%rbp), %rax
	movq	%rdx, (%rax)
	.loc 1 168 10
	movq	-88(%rbp), %rax
	.loc 1 169 1
	movq	-8(%rbp), %rcx
	xorq	%fs:40, %rcx
	je	.L41
	call	__stack_chk_fail@PLT
.L41:
	leave
	.cfi_def_cfa 7, 8
	ret
	.cfi_endproc
.LFE20:
	.size	func_params, .-func_params
	.type	type_suffix, @function
type_suffix:
.LFB21:
	.loc 1 174 76
	.cfi_startproc
	endbr64
	pushq	%rbp
	.cfi_def_cfa_offset 16
	.cfi_offset 6, -16
	movq	%rsp, %rbp
	.cfi_def_cfa_register 6
	subq	$48, %rsp
	movq	%rdi, -24(%rbp)
	movq	%rsi, -32(%rbp)
	movq	%rdx, -40(%rbp)
	.loc 1 175 7
	movq	-32(%rbp), %rax
	movl	$11, %esi
	movq	%rax, %rdi
	call	check@PLT
	.loc 1 175 6
	testb	%al, %al
	je	.L43
	.loc 1 176 33
	movq	-32(%rbp), %rax
	movq	8(%rax), %rcx
	.loc 1 176 12
	movq	-40(%rbp), %rdx
	movq	-24(%rbp), %rax
	movq	%rcx, %rsi
	movq	%rax, %rdi
	call	func_params
	jmp	.L44
.L43:
	.loc 1 178 7
	movq	-32(%rbp), %rax
	movl	$9, %esi
	movq	%rax, %rdi
	call	check@PLT
	.loc 1 178 6
	testb	%al, %al
	je	.L45
.LBB6:
	.loc 1 179 37
	movq	-32(%rbp), %rax
	movq	8(%rax), %rax
	.loc 1 179 23
	movq	%rax, %rdi
	call	get_number
	movl	%eax, -4(%rbp)
	.loc 1 180 22
	movq	-32(%rbp), %rax
	movq	8(%rax), %rax
	.loc 1 180 28
	movq	8(%rax), %rax
	.loc 1 180 11
	movl	$10, %esi
	movq	%rax, %rdi
	call	consume@PLT
	movq	%rax, -32(%rbp)
	.loc 1 181 12
	movq	-40(%rbp), %rdx
	movq	-32(%rbp), %rcx
	movq	-24(%rbp), %rax
	movq	%rcx, %rsi
	movq	%rax, %rdi
	call	type_suffix
	movq	%rax, -40(%rbp)
	.loc 1 182 12
	movl	-4(%rbp), %edx
	movq	-40(%rbp), %rax
	movl	%edx, %esi
	movq	%rax, %rdi
	call	array_of@PLT
	jmp	.L44
.L45:
.LBE6:
	.loc 1 185 9
	movq	-24(%rbp), %rax
	movq	-32(%rbp), %rdx
	movq	%rdx, (%rax)
	.loc 1 186 10
	movq	-40(%rbp), %rax
.L44:
	.loc 1 187 1
	leave
	.cfi_def_cfa 7, 8
	ret
	.cfi_endproc
.LFE21:
	.size	type_suffix, .-type_suffix
	.section	.rodata
.LC3:
	.string	"expected a variable name"
	.text
	.type	declarator, @function
declarator:
.LFB22:
	.loc 1 190 75
	.cfi_startproc
	endbr64
	pushq	%rbp
	.cfi_def_cfa_offset 16
	.cfi_offset 6, -16
	movq	%rsp, %rbp
	.cfi_def_cfa_register 6
	subq	$32, %rsp
	movq	%rdi, -8(%rbp)
	movq	%rsi, -16(%rbp)
	movq	%rdx, -24(%rbp)
	.loc 1 191 9
	jmp	.L47
.L48:
	.loc 1 192 12
	movq	-24(%rbp), %rax
	movq	%rax, %rdi
	call	pointer_to@PLT
	movq	%rax, -24(%rbp)
.L47:
	.loc 1 191 10
	movq	-16(%rbp), %rcx
	leaq	-16(%rbp), %rax
	movl	$21, %edx
	movq	%rcx, %rsi
	movq	%rax, %rdi
	call	match@PLT
	.loc 1 191 9
	testb	%al, %al
	jne	.L48
	.loc 1 195 10
	movq	-16(%rbp), %rax
	movl	(%rax), %eax
	.loc 1 195 6
	cmpl	$35, %eax
	je	.L49
	.loc 1 196 5
	movq	-16(%rbp), %rax
	leaq	.LC3(%rip), %rsi
	movq	%rax, %rdi
	movl	$0, %eax
	call	error_tok@PLT
.L49:
	.loc 1 198 31
	movq	-16(%rbp), %rax
	movq	8(%rax), %rcx
	.loc 1 198 10
	movq	-24(%rbp), %rdx
	movq	-8(%rbp), %rax
	movq	%rcx, %rsi
	movq	%rax, %rdi
	call	type_suffix
	movq	%rax, -24(%rbp)
	.loc 1 199 14
	movq	-16(%rbp), %rdx
	movq	-24(%rbp), %rax
	movq	%rdx, 24(%rax)
	.loc 1 200 10
	movq	-24(%rbp), %rax
	.loc 1 201 1
	leave
	.cfi_def_cfa 7, 8
	ret
	.cfi_endproc
.LFE22:
	.size	declarator, .-declarator
	.type	declaration, @function
declaration:
.LFB23:
	.loc 1 205 69
	.cfi_startproc
	endbr64
	pushq	%rbp
	.cfi_def_cfa_offset 16
	.cfi_offset 6, -16
	movq	%rsp, %rbp
	.cfi_def_cfa_register 6
	pushq	%rbx
	subq	$152, %rsp
	.cfi_offset 3, -24
	movq	%rdi, -152(%rbp)
	movq	%rsi, -160(%rbp)
	.loc 1 205 69
	movq	%fs:40, %rax
	movq	%rax, -24(%rbp)
	xorl	%eax, %eax
	.loc 1 206 21
	movq	-160(%rbp), %rdx
	leaq	-160(%rbp), %rax
	movq	%rdx, %rsi
	movq	%rax, %rdi
	call	declspec
	movq	%rax, -120(%rbp)
	.loc 1 208 8
	movq	$0, -64(%rbp)
	movq	$0, -56(%rbp)
	movq	$0, -48(%rbp)
	movq	$0, -40(%rbp)
	.loc 1 209 9
	leaq	-64(%rbp), %rax
	movq	%rax, -128(%rbp)
	.loc 1 210 7
	movl	$0, -132(%rbp)
	.loc 1 212 9
	jmp	.L52
.L55:
.LBB7:
	.loc 1 213 10
	movl	-132(%rbp), %eax
	leal	1(%rax), %edx
	movl	%edx, -132(%rbp)
	.loc 1 213 8
	testl	%eax, %eax
	jle	.L53
	.loc 1 214 13
	movq	-160(%rbp), %rax
	movl	$15, %esi
	movq	%rax, %rdi
	call	consume@PLT
	.loc 1 214 11
	movq	%rax, -160(%rbp)
.L53:
	.loc 1 216 18
	movq	-160(%rbp), %rcx
	movq	-120(%rbp), %rdx
	leaq	-160(%rbp), %rax
	movq	%rcx, %rsi
	movq	%rax, %rdi
	call	declarator
	movq	%rax, -104(%rbp)
	.loc 1 217 58
	movq	-104(%rbp), %rax
	movq	24(%rax), %rax
	.loc 1 217 16
	movl	32(%rax), %ebx
	.loc 1 217 45
	movq	-104(%rbp), %rax
	movq	24(%rax), %rax
	.loc 1 217 16
	movq	%rax, %rdi
	call	get_ident
	movq	%rax, %rcx
	movq	-104(%rbp), %rax
	movl	%ebx, %edx
	movq	%rcx, %rsi
	movq	%rax, %rdi
	call	new_lvar
	movq	%rax, -96(%rbp)
	.loc 1 219 10
	movq	-160(%rbp), %rax
	movl	$27, %esi
	movq	%rax, %rdi
	call	check@PLT
	.loc 1 219 9
	xorl	$1, %eax
	.loc 1 219 8
	testb	%al, %al
	je	.L54
	.loc 1 220 7
	jmp	.L52
.L54:
	.loc 1 222 39
	movq	-104(%rbp), %rax
	movq	24(%rax), %rdx
	.loc 1 222 17
	movq	-96(%rbp), %rax
	movq	%rdx, %rsi
	movq	%rax, %rdi
	call	new_var_node@PLT
	movq	%rax, -88(%rbp)
	.loc 1 223 33
	movq	-160(%rbp), %rax
	movq	8(%rax), %rdx
	.loc 1 223 17
	leaq	-160(%rbp), %rax
	movq	%rdx, %rsi
	movq	%rax, %rdi
	call	assign
	movq	%rax, -80(%rbp)
	.loc 1 224 18
	movq	-160(%rbp), %rcx
	movq	-80(%rbp), %rdx
	movq	-88(%rbp), %rax
	movq	%rax, %rsi
	movl	$8, %edi
	call	new_binary_node@PLT
	movq	%rax, -72(%rbp)
	.loc 1 225 23
	movq	-160(%rbp), %rdx
	movq	-72(%rbp), %rax
	movq	%rax, %rsi
	movl	$3, %edi
	call	new_unary_node@PLT
	.loc 1 225 21
	movq	-128(%rbp), %rdx
	movq	%rax, 8(%rdx)
	.loc 1 225 9
	movq	-128(%rbp), %rax
	movq	8(%rax), %rax
	movq	%rax, -128(%rbp)
.L52:
.LBE7:
	.loc 1 212 11
	movq	-160(%rbp), %rax
	movl	$19, %esi
	movq	%rax, %rdi
	call	check@PLT
	.loc 1 212 10
	xorl	$1, %eax
	.loc 1 212 9
	testb	%al, %al
	jne	.L55
	.loc 1 228 21
	movq	-160(%rbp), %rdx
	movq	-56(%rbp), %rax
	movq	%rdx, %rsi
	movq	%rax, %rdi
	call	new_block_node@PLT
	movq	%rax, -112(%rbp)
	.loc 1 229 14
	movq	-160(%rbp), %rax
	movq	8(%rax), %rdx
	.loc 1 229 9
	movq	-152(%rbp), %rax
	movq	%rdx, (%rax)
	.loc 1 230 10
	movq	-112(%rbp), %rax
	.loc 1 231 1
	movq	-24(%rbp), %rbx
	xorq	%fs:40, %rbx
	je	.L57
	call	__stack_chk_fail@PLT
.L57:
	addq	$152, %rsp
	popq	%rbx
	popq	%rbp
	.cfi_def_cfa 7, 8
	ret
	.cfi_endproc
.LFE23:
	.size	declaration, .-declaration
	.type	is_typename, @function
is_typename:
.LFB24:
	.loc 1 234 43
	.cfi_startproc
	endbr64
	pushq	%rbp
	.cfi_def_cfa_offset 16
	.cfi_offset 6, -16
	movq	%rsp, %rbp
	.cfi_def_cfa_register 6
	subq	$16, %rsp
	movq	%rdi, -8(%rbp)
	.loc 1 235 10
	movq	-8(%rbp), %rax
	movl	$6, %esi
	movq	%rax, %rdi
	call	check@PLT
	.loc 1 235 33
	testb	%al, %al
	jne	.L59
	.loc 1 235 36 discriminator 2
	movq	-8(%rbp), %rax
	movl	$5, %esi
	movq	%rax, %rdi
	call	check@PLT
	.loc 1 235 33 discriminator 2
	testb	%al, %al
	je	.L60
.L59:
	.loc 1 235 33 is_stmt 0 discriminator 3
	movl	$1, %eax
	jmp	.L61
.L60:
	.loc 1 235 33 discriminator 4
	movl	$0, %eax
.L61:
	.loc 1 235 33 discriminator 6
	andl	$1, %eax
	.loc 1 236 1 is_stmt 1 discriminator 6
	leave
	.cfi_def_cfa 7, 8
	ret
	.cfi_endproc
.LFE24:
	.size	is_typename, .-is_typename
	.type	stmt, @function
stmt:
.LFB25:
	.loc 1 244 57
	.cfi_startproc
	endbr64
	pushq	%rbp
	.cfi_def_cfa_offset 16
	.cfi_offset 6, -16
	movq	%rsp, %rbp
	.cfi_def_cfa_register 6
	pushq	%rbx
	subq	$152, %rsp
	.cfi_offset 3, -24
	movq	%rdi, -152(%rbp)
	movq	%rsi, -160(%rbp)
	.loc 1 245 7
	movq	-160(%rbp), %rax
	movl	$0, %esi
	movq	%rax, %rdi
	call	check@PLT
	.loc 1 245 6
	testb	%al, %al
	je	.L64
.LBB8:
	.loc 1 246 18
	movq	-160(%rbp), %rbx
	.loc 1 246 60
	movq	-160(%rbp), %rax
	movq	8(%rax), %rdx
	.loc 1 246 18
	leaq	-160(%rbp), %rax
	movq	%rdx, %rsi
	movq	%rax, %rdi
	call	expr
	movq	%rbx, %rdx
	movq	%rax, %rsi
	movl	$5, %edi
	call	new_unary_node@PLT
	movq	%rax, -24(%rbp)
	.loc 1 247 13
	movq	-160(%rbp), %rax
	movl	$19, %esi
	movq	%rax, %rdi
	call	consume@PLT
	.loc 1 247 11
	movq	-152(%rbp), %rdx
	movq	%rax, (%rdx)
	.loc 1 248 12
	movq	-24(%rbp), %rax
	jmp	.L65
.L64:
.LBE8:
	.loc 1 251 7
	movq	-160(%rbp), %rax
	movl	$1, %esi
	movq	%rax, %rdi
	call	check@PLT
	.loc 1 251 6
	testb	%al, %al
	je	.L66
.LBB9:
	.loc 1 252 18
	movq	-160(%rbp), %rax
	movq	%rax, -56(%rbp)
	.loc 1 253 22
	movq	-160(%rbp), %rax
	movq	8(%rax), %rax
	.loc 1 253 11
	movl	$11, %esi
	movq	%rax, %rdi
	call	consume@PLT
	.loc 1 253 9
	movq	%rax, -160(%rbp)
	.loc 1 254 23
	movq	-160(%rbp), %rdx
	leaq	-160(%rbp), %rax
	movq	%rdx, %rsi
	movq	%rax, %rdi
	call	expr
	movq	%rax, -48(%rbp)
	.loc 1 255 11
	movq	-160(%rbp), %rax
	movl	$12, %esi
	movq	%rax, %rdi
	call	consume@PLT
	.loc 1 255 9
	movq	%rax, -160(%rbp)
	.loc 1 256 23
	movq	-160(%rbp), %rdx
	leaq	-160(%rbp), %rax
	movq	%rdx, %rsi
	movq	%rax, %rdi
	call	stmt
	movq	%rax, -40(%rbp)
	.loc 1 258 9
	movq	-160(%rbp), %rax
	movl	$2, %esi
	movq	%rax, %rdi
	call	check@PLT
	.loc 1 258 8
	testb	%al, %al
	je	.L67
	.loc 1 259 33
	movq	-160(%rbp), %rax
	movq	8(%rax), %rdx
	.loc 1 259 19
	leaq	-160(%rbp), %rax
	movq	%rdx, %rsi
	movq	%rax, %rdi
	call	stmt
	movq	%rax, -144(%rbp)
	jmp	.L68
.L67:
	.loc 1 261 17
	movq	$0, -144(%rbp)
.L68:
	.loc 1 264 18
	movq	-56(%rbp), %rcx
	movq	-144(%rbp), %rdx
	movq	-40(%rbp), %rsi
	movq	-48(%rbp), %rax
	movq	%rax, %rdi
	call	new_if_node@PLT
	movq	%rax, -32(%rbp)
	.loc 1 266 11
	movq	-160(%rbp), %rdx
	movq	-152(%rbp), %rax
	movq	%rdx, (%rax)
	.loc 1 267 12
	movq	-32(%rbp), %rax
	jmp	.L65
.L66:
.LBE9:
	.loc 1 269 7
	movq	-160(%rbp), %rax
	movl	$3, %esi
	movq	%rax, %rdi
	call	check@PLT
	.loc 1 269 6
	testb	%al, %al
	je	.L69
.LBB10:
	.loc 1 270 18
	movq	-160(%rbp), %rax
	movq	%rax, -88(%rbp)
	.loc 1 272 22
	movq	-160(%rbp), %rax
	movq	8(%rax), %rax
	.loc 1 272 11
	movl	$11, %esi
	movq	%rax, %rdi
	call	consume@PLT
	.loc 1 272 9
	movq	%rax, -160(%rbp)
	.loc 1 274 23
	movq	-160(%rbp), %rdx
	leaq	-160(%rbp), %rax
	movq	%rdx, %rsi
	movq	%rax, %rdi
	call	expr_stmt
	movq	%rax, -80(%rbp)
	.loc 1 276 10
	movq	-160(%rbp), %rax
	movl	$19, %esi
	movq	%rax, %rdi
	call	check@PLT
	.loc 1 276 9
	xorl	$1, %eax
	.loc 1 276 8
	testb	%al, %al
	je	.L70
	.loc 1 277 19
	movq	-160(%rbp), %rdx
	leaq	-160(%rbp), %rax
	movq	%rdx, %rsi
	movq	%rax, %rdi
	call	expr
	movq	%rax, -136(%rbp)
	jmp	.L71
.L70:
	.loc 1 279 17
	movq	$0, -136(%rbp)
.L71:
	.loc 1 281 11
	movq	-160(%rbp), %rax
	movl	$19, %esi
	movq	%rax, %rdi
	call	consume@PLT
	.loc 1 281 9
	movq	%rax, -160(%rbp)
	.loc 1 284 10
	movq	-160(%rbp), %rax
	movl	$12, %esi
	movq	%rax, %rdi
	call	check@PLT
	.loc 1 284 9
	xorl	$1, %eax
	.loc 1 284 8
	testb	%al, %al
	je	.L72
	.loc 1 285 18
	movq	-160(%rbp), %rdx
	leaq	-160(%rbp), %rax
	movq	%rdx, %rsi
	movq	%rax, %rdi
	call	expr
	movq	%rax, -128(%rbp)
	jmp	.L73
.L72:
	.loc 1 287 16
	movq	$0, -128(%rbp)
.L73:
	.loc 1 288 11
	movq	-160(%rbp), %rax
	movl	$12, %esi
	movq	%rax, %rdi
	call	consume@PLT
	.loc 1 288 9
	movq	%rax, -160(%rbp)
	.loc 1 290 23
	movq	-160(%rbp), %rdx
	movq	-152(%rbp), %rax
	movq	%rdx, %rsi
	movq	%rax, %rdi
	call	stmt
	movq	%rax, -72(%rbp)
	.loc 1 292 18
	movq	-88(%rbp), %rdi
	movq	-72(%rbp), %rcx
	movq	-128(%rbp), %rdx
	movq	-136(%rbp), %rsi
	movq	-80(%rbp), %rax
	movq	%rdi, %r8
	movq	%rax, %rdi
	call	new_for_node@PLT
	movq	%rax, -64(%rbp)
	.loc 1 293 12
	movq	-64(%rbp), %rax
	jmp	.L65
.L69:
.LBE10:
	.loc 1 295 7
	movq	-160(%rbp), %rax
	movl	$4, %esi
	movq	%rax, %rdi
	call	check@PLT
	.loc 1 295 6
	testb	%al, %al
	je	.L74
.LBB11:
	.loc 1 296 18
	movq	-160(%rbp), %rax
	movq	%rax, -120(%rbp)
	.loc 1 298 22
	movq	-160(%rbp), %rax
	movq	8(%rax), %rax
	.loc 1 298 11
	movl	$11, %esi
	movq	%rax, %rdi
	call	consume@PLT
	.loc 1 298 9
	movq	%rax, -160(%rbp)
	.loc 1 299 23
	movq	-160(%rbp), %rdx
	leaq	-160(%rbp), %rax
	movq	%rdx, %rsi
	movq	%rax, %rdi
	call	expr
	movq	%rax, -112(%rbp)
	.loc 1 300 11
	movq	-160(%rbp), %rax
	movl	$12, %esi
	movq	%rax, %rdi
	call	consume@PLT
	.loc 1 300 9
	movq	%rax, -160(%rbp)
	.loc 1 301 23
	movq	-160(%rbp), %rdx
	movq	-152(%rbp), %rax
	movq	%rdx, %rsi
	movq	%rax, %rdi
	call	stmt
	movq	%rax, -104(%rbp)
	.loc 1 303 18
	movq	-120(%rbp), %rcx
	movq	-104(%rbp), %rdx
	movq	-112(%rbp), %rax
	movq	%rcx, %r8
	movq	%rdx, %rcx
	movl	$0, %edx
	movq	%rax, %rsi
	movl	$0, %edi
	call	new_for_node@PLT
	movq	%rax, -96(%rbp)
	.loc 1 304 12
	movq	-96(%rbp), %rax
	jmp	.L65
.L74:
.LBE11:
	.loc 1 307 7
	movq	-160(%rbp), %rax
	movl	$13, %esi
	movq	%rax, %rdi
	call	check@PLT
	.loc 1 307 6
	testb	%al, %al
	je	.L75
	.loc 1 308 43
	movq	-160(%rbp), %rax
	movq	8(%rax), %rdx
	.loc 1 308 20
	movq	-152(%rbp), %rax
	movq	%rdx, %rsi
	movq	%rax, %rdi
	call	compound_stmt
	.loc 1 308 12
	jmp	.L65
.L75:
	.loc 1 311 10
	movq	-160(%rbp), %rdx
	movq	-152(%rbp), %rax
	movq	%rdx, %rsi
	movq	%rax, %rdi
	call	expr_stmt
.L65:
	.loc 1 312 1
	addq	$152, %rsp
	popq	%rbx
	popq	%rbp
	.cfi_def_cfa 7, 8
	ret
	.cfi_endproc
.LFE25:
	.size	stmt, .-stmt
	.type	compound_stmt, @function
compound_stmt:
.LFB26:
	.loc 1 315 71
	.cfi_startproc
	endbr64
	pushq	%rbp
	.cfi_def_cfa_offset 16
	.cfi_offset 6, -16
	movq	%rsp, %rbp
	.cfi_def_cfa_register 6
	subq	$80, %rsp
	movq	%rdi, -72(%rbp)
	movq	%rsi, -80(%rbp)
	.loc 1 315 71
	movq	%fs:40, %rax
	movq	%rax, -8(%rbp)
	xorl	%eax, %eax
	.loc 1 316 8
	movq	$0, -48(%rbp)
	movq	$0, -40(%rbp)
	movq	$0, -32(%rbp)
	movq	$0, -24(%rbp)
	.loc 1 317 9
	leaq	-48(%rbp), %rax
	movq	%rax, -64(%rbp)
	.loc 1 319 3
	call	enter_scope
	.loc 1 321 9
	jmp	.L77
.L80:
	.loc 1 322 9
	movq	-80(%rbp), %rax
	movq	%rax, %rdi
	call	is_typename
	.loc 1 322 8
	testb	%al, %al
	je	.L78
	.loc 1 323 33
	movq	-80(%rbp), %rdx
	leaq	-80(%rbp), %rax
	movq	%rdx, %rsi
	movq	%rax, %rdi
	call	declaration
	.loc 1 323 23
	movq	-64(%rbp), %rdx
	movq	%rax, 8(%rdx)
	.loc 1 323 11
	movq	-64(%rbp), %rax
	movq	8(%rax), %rax
	movq	%rax, -64(%rbp)
	jmp	.L79
.L78:
	.loc 1 325 25
	movq	-80(%rbp), %rdx
	leaq	-80(%rbp), %rax
	movq	%rdx, %rsi
	movq	%rax, %rdi
	call	stmt
	.loc 1 325 23
	movq	-64(%rbp), %rdx
	movq	%rax, 8(%rdx)
	.loc 1 325 11
	movq	-64(%rbp), %rax
	movq	8(%rax), %rax
	movq	%rax, -64(%rbp)
.L79:
	.loc 1 327 5
	movq	-64(%rbp), %rax
	movq	%rax, %rdi
	call	add_type@PLT
.L77:
	.loc 1 321 11
	movq	-80(%rbp), %rax
	movl	$14, %esi
	movq	%rax, %rdi
	call	check@PLT
	.loc 1 321 10
	xorl	$1, %eax
	.loc 1 321 9
	testb	%al, %al
	jne	.L80
	.loc 1 330 3
	call	leave_scope
	.loc 1 332 21
	movq	-80(%rbp), %rdx
	movq	-40(%rbp), %rax
	movq	%rdx, %rsi
	movq	%rax, %rdi
	call	new_block_node@PLT
	movq	%rax, -56(%rbp)
	.loc 1 333 14
	movq	-80(%rbp), %rax
	movq	8(%rax), %rdx
	.loc 1 333 9
	movq	-72(%rbp), %rax
	movq	%rdx, (%rax)
	.loc 1 334 10
	movq	-56(%rbp), %rax
	.loc 1 335 1
	movq	-8(%rbp), %rcx
	xorq	%fs:40, %rcx
	je	.L82
	call	__stack_chk_fail@PLT
.L82:
	leave
	.cfi_def_cfa 7, 8
	ret
	.cfi_endproc
.LFE26:
	.size	compound_stmt, .-compound_stmt
	.type	expr_stmt, @function
expr_stmt:
.LFB27:
	.loc 1 338 62
	.cfi_startproc
	endbr64
	pushq	%rbp
	.cfi_def_cfa_offset 16
	.cfi_offset 6, -16
	movq	%rsp, %rbp
	.cfi_def_cfa_register 6
	subq	$32, %rsp
	movq	%rdi, -24(%rbp)
	movq	%rsi, -32(%rbp)
	.loc 1 339 7
	movq	-32(%rbp), %rcx
	movq	-24(%rbp), %rax
	movl	$19, %edx
	movq	%rcx, %rsi
	movq	%rax, %rdi
	call	match@PLT
	.loc 1 339 6
	testb	%al, %al
	je	.L84
	.loc 1 341 20
	movq	-32(%rbp), %rax
	movq	%rax, %rsi
	movl	$0, %edi
	call	new_block_node@PLT
	.loc 1 341 12
	jmp	.L85
.L84:
	.loc 1 343 16
	movq	-32(%rbp), %rax
	movq	%rax, -16(%rbp)
	.loc 1 345 16
	movq	-32(%rbp), %rdx
	leaq	-32(%rbp), %rax
	movq	%rdx, %rsi
	movq	%rax, %rdi
	call	expr
	movq	%rax, -8(%rbp)
	.loc 1 346 10
	movq	-16(%rbp), %rdx
	movq	-8(%rbp), %rax
	movq	%rax, %rsi
	movl	$3, %edi
	call	new_unary_node@PLT
	movq	%rax, -8(%rbp)
	.loc 1 347 11
	movq	-32(%rbp), %rax
	movl	$19, %esi
	movq	%rax, %rdi
	call	consume@PLT
	.loc 1 347 9
	movq	-24(%rbp), %rdx
	movq	%rax, (%rdx)
	.loc 1 348 10
	movq	-8(%rbp), %rax
.L85:
	.loc 1 349 1
	leave
	.cfi_def_cfa 7, 8
	ret
	.cfi_endproc
.LFE27:
	.size	expr_stmt, .-expr_stmt
	.type	expr, @function
expr:
.LFB28:
	.loc 1 352 57
	.cfi_startproc
	endbr64
	pushq	%rbp
	.cfi_def_cfa_offset 16
	.cfi_offset 6, -16
	movq	%rsp, %rbp
	.cfi_def_cfa_register 6
	subq	$16, %rsp
	movq	%rdi, -8(%rbp)
	movq	%rsi, -16(%rbp)
	.loc 1 353 10
	movq	-16(%rbp), %rdx
	movq	-8(%rbp), %rax
	movq	%rdx, %rsi
	movq	%rax, %rdi
	call	assign
	.loc 1 354 1
	leave
	.cfi_def_cfa 7, 8
	ret
	.cfi_endproc
.LFE28:
	.size	expr, .-expr
	.type	assign, @function
assign:
.LFB29:
	.loc 1 357 59
	.cfi_startproc
	endbr64
	pushq	%rbp
	.cfi_def_cfa_offset 16
	.cfi_offset 6, -16
	movq	%rsp, %rbp
	.cfi_def_cfa_register 6
	pushq	%rbx
	subq	$40, %rsp
	.cfi_offset 3, -24
	movq	%rdi, -40(%rbp)
	movq	%rsi, -48(%rbp)
	.loc 1 358 16
	movq	-48(%rbp), %rdx
	leaq	-48(%rbp), %rax
	movq	%rdx, %rsi
	movq	%rax, %rdi
	call	equality
	movq	%rax, -24(%rbp)
	.loc 1 359 7
	movq	-48(%rbp), %rax
	movl	$27, %esi
	movq	%rax, %rdi
	call	check@PLT
	.loc 1 359 6
	testb	%al, %al
	je	.L89
	.loc 1 360 12
	movq	-48(%rbp), %rbx
	.loc 1 360 63
	movq	-48(%rbp), %rax
	movq	8(%rax), %rdx
	.loc 1 360 12
	movq	-40(%rbp), %rax
	movq	%rdx, %rsi
	movq	%rax, %rdi
	call	assign
	movq	%rax, %rdx
	movq	-24(%rbp), %rax
	movq	%rbx, %rcx
	movq	%rax, %rsi
	movl	$8, %edi
	call	new_binary_node@PLT
	jmp	.L90
.L89:
	.loc 1 361 9
	movq	-48(%rbp), %rdx
	movq	-40(%rbp), %rax
	movq	%rdx, (%rax)
	.loc 1 362 10
	movq	-24(%rbp), %rax
.L90:
	.loc 1 363 1
	addq	$40, %rsp
	popq	%rbx
	popq	%rbp
	.cfi_def_cfa 7, 8
	ret
	.cfi_endproc
.LFE29:
	.size	assign, .-assign
	.type	equality, @function
equality:
.LFB30:
	.loc 1 366 61
	.cfi_startproc
	endbr64
	pushq	%rbp
	.cfi_def_cfa_offset 16
	.cfi_offset 6, -16
	movq	%rsp, %rbp
	.cfi_def_cfa_register 6
	subq	$32, %rsp
	movq	%rdi, -24(%rbp)
	movq	%rsi, -32(%rbp)
	.loc 1 367 16
	movq	-32(%rbp), %rdx
	leaq	-32(%rbp), %rax
	movq	%rdx, %rsi
	movq	%rax, %rdi
	call	comparison
	movq	%rax, -16(%rbp)
.L96:
.LBB12:
	.loc 1 370 18
	movq	-32(%rbp), %rax
	movq	%rax, -8(%rbp)
	.loc 1 371 9
	movq	-32(%rbp), %rax
	movl	$28, %esi
	movq	%rax, %rdi
	call	check@PLT
	.loc 1 371 8
	testb	%al, %al
	je	.L92
	.loc 1 372 65
	movq	-32(%rbp), %rax
	movq	8(%rax), %rdx
	.loc 1 372 14
	leaq	-32(%rbp), %rax
	movq	%rdx, %rsi
	movq	%rax, %rdi
	call	comparison
	movq	%rax, %rsi
	movq	-8(%rbp), %rdx
	movq	-16(%rbp), %rax
	movq	%rdx, %rcx
	movq	%rsi, %rdx
	movq	%rax, %rsi
	movl	$4, %edi
	call	new_binary_node@PLT
	movq	%rax, -16(%rbp)
	.loc 1 373 7
	jmp	.L93
.L92:
	.loc 1 376 9
	movq	-32(%rbp), %rax
	movl	$26, %esi
	movq	%rax, %rdi
	call	check@PLT
	.loc 1 376 8
	testb	%al, %al
	je	.L94
	.loc 1 377 65
	movq	-32(%rbp), %rax
	movq	8(%rax), %rdx
	.loc 1 377 14
	leaq	-32(%rbp), %rax
	movq	%rdx, %rsi
	movq	%rax, %rdi
	call	comparison
	movq	%rax, %rsi
	movq	-8(%rbp), %rdx
	movq	-16(%rbp), %rax
	movq	%rdx, %rcx
	movq	%rsi, %rdx
	movq	%rax, %rsi
	movl	$5, %edi
	call	new_binary_node@PLT
	movq	%rax, -16(%rbp)
	.loc 1 378 7
	jmp	.L93
.L94:
	.loc 1 381 11
	movq	-32(%rbp), %rdx
	movq	-24(%rbp), %rax
	movq	%rdx, (%rax)
	.loc 1 382 12
	movq	-16(%rbp), %rax
	jmp	.L97
.L93:
.LBE12:
	.loc 1 369 12
	jmp	.L96
.L97:
	.loc 1 384 1 discriminator 1
	leave
	.cfi_def_cfa 7, 8
	ret
	.cfi_endproc
.LFE30:
	.size	equality, .-equality
	.type	comparison, @function
comparison:
.LFB31:
	.loc 1 387 63
	.cfi_startproc
	endbr64
	pushq	%rbp
	.cfi_def_cfa_offset 16
	.cfi_offset 6, -16
	movq	%rsp, %rbp
	.cfi_def_cfa_register 6
	subq	$32, %rsp
	movq	%rdi, -24(%rbp)
	movq	%rsi, -32(%rbp)
	.loc 1 388 16
	movq	-32(%rbp), %rdx
	leaq	-32(%rbp), %rax
	movq	%rdx, %rsi
	movq	%rax, %rdi
	call	term
	movq	%rax, -16(%rbp)
.L105:
.LBB13:
	.loc 1 391 18
	movq	-32(%rbp), %rax
	movq	%rax, -8(%rbp)
	.loc 1 392 9
	movq	-32(%rbp), %rax
	movl	$31, %esi
	movq	%rax, %rdi
	call	check@PLT
	.loc 1 392 8
	testb	%al, %al
	je	.L99
	.loc 1 393 59
	movq	-32(%rbp), %rax
	movq	8(%rax), %rdx
	.loc 1 393 14
	leaq	-32(%rbp), %rax
	movq	%rdx, %rsi
	movq	%rax, %rdi
	call	term
	movq	%rax, %rsi
	movq	-8(%rbp), %rdx
	movq	-16(%rbp), %rax
	movq	%rdx, %rcx
	movq	%rsi, %rdx
	movq	%rax, %rsi
	movl	$6, %edi
	call	new_binary_node@PLT
	movq	%rax, -16(%rbp)
	.loc 1 394 7
	jmp	.L100
.L99:
	.loc 1 397 9
	movq	-32(%rbp), %rax
	movl	$32, %esi
	movq	%rax, %rdi
	call	check@PLT
	.loc 1 397 8
	testb	%al, %al
	je	.L101
	.loc 1 398 59
	movq	-32(%rbp), %rax
	movq	8(%rax), %rdx
	.loc 1 398 14
	leaq	-32(%rbp), %rax
	movq	%rdx, %rsi
	movq	%rax, %rdi
	call	term
	movq	%rax, %rsi
	movq	-8(%rbp), %rdx
	movq	-16(%rbp), %rax
	movq	%rdx, %rcx
	movq	%rsi, %rdx
	movq	%rax, %rsi
	movl	$7, %edi
	call	new_binary_node@PLT
	movq	%rax, -16(%rbp)
	.loc 1 399 7
	jmp	.L100
.L101:
	.loc 1 402 9
	movq	-32(%rbp), %rax
	movl	$29, %esi
	movq	%rax, %rdi
	call	check@PLT
	.loc 1 402 8
	testb	%al, %al
	je	.L102
	.loc 1 403 53
	movq	-32(%rbp), %rax
	movq	8(%rax), %rdx
	.loc 1 403 14
	leaq	-32(%rbp), %rax
	movq	%rdx, %rsi
	movq	%rax, %rdi
	call	term
	movq	%rax, %rsi
	movq	-8(%rbp), %rdx
	movq	-16(%rbp), %rax
	movq	%rdx, %rcx
	movq	%rax, %rdx
	movl	$6, %edi
	call	new_binary_node@PLT
	movq	%rax, -16(%rbp)
	.loc 1 404 7
	jmp	.L100
.L102:
	.loc 1 407 9
	movq	-32(%rbp), %rax
	movl	$30, %esi
	movq	%rax, %rdi
	call	check@PLT
	.loc 1 407 8
	testb	%al, %al
	je	.L103
	.loc 1 408 53
	movq	-32(%rbp), %rax
	movq	8(%rax), %rdx
	.loc 1 408 14
	leaq	-32(%rbp), %rax
	movq	%rdx, %rsi
	movq	%rax, %rdi
	call	term
	movq	%rax, %rsi
	movq	-8(%rbp), %rdx
	movq	-16(%rbp), %rax
	movq	%rdx, %rcx
	movq	%rax, %rdx
	movl	$7, %edi
	call	new_binary_node@PLT
	movq	%rax, -16(%rbp)
	.loc 1 409 7
	jmp	.L100
.L103:
	.loc 1 412 11
	movq	-32(%rbp), %rdx
	movq	-24(%rbp), %rax
	movq	%rdx, (%rax)
	.loc 1 413 12
	movq	-16(%rbp), %rax
	jmp	.L106
.L100:
.LBE13:
	.loc 1 390 12
	jmp	.L105
.L106:
	.loc 1 415 1 discriminator 1
	leave
	.cfi_def_cfa 7, 8
	ret
	.cfi_endproc
.LFE31:
	.size	comparison, .-comparison
	.section	.rodata
.LC4:
	.string	"invalid operands"
	.text
	.type	new_add, @function
new_add:
.LFB32:
	.loc 1 422 62
	.cfi_startproc
	endbr64
	pushq	%rbp
	.cfi_def_cfa_offset 16
	.cfi_offset 6, -16
	movq	%rsp, %rbp
	.cfi_def_cfa_register 6
	subq	$48, %rsp
	movq	%rdi, -24(%rbp)
	movq	%rsi, -32(%rbp)
	movq	%rdx, -40(%rbp)
	.loc 1 423 3
	movq	-24(%rbp), %rax
	movq	%rax, %rdi
	call	add_type@PLT
	.loc 1 424 3
	movq	-32(%rbp), %rax
	movq	%rax, %rdi
	call	add_type@PLT
	.loc 1 427 21
	movq	-24(%rbp), %rax
	movq	16(%rax), %rax
	.loc 1 427 7
	movq	%rax, %rdi
	call	is_integer@PLT
	.loc 1 427 6
	testb	%al, %al
	je	.L108
	.loc 1 427 46 discriminator 1
	movq	-32(%rbp), %rax
	movq	16(%rax), %rax
	.loc 1 427 32 discriminator 1
	movq	%rax, %rdi
	call	is_integer@PLT
	.loc 1 427 29 discriminator 1
	testb	%al, %al
	je	.L108
	.loc 1 428 12
	movq	-40(%rbp), %rcx
	movq	-32(%rbp), %rdx
	movq	-24(%rbp), %rax
	movq	%rax, %rsi
	movl	$0, %edi
	call	new_binary_node@PLT
	jmp	.L109
.L108:
	.loc 1 430 10
	movq	-24(%rbp), %rax
	movq	16(%rax), %rax
	.loc 1 430 16
	movq	16(%rax), %rax
	.loc 1 430 6
	testq	%rax, %rax
	je	.L110
	.loc 1 430 29 discriminator 1
	movq	-32(%rbp), %rax
	movq	16(%rax), %rax
	.loc 1 430 35 discriminator 1
	movq	16(%rax), %rax
	.loc 1 430 23 discriminator 1
	testq	%rax, %rax
	je	.L110
	.loc 1 431 5
	movq	-40(%rbp), %rax
	leaq	.LC4(%rip), %rsi
	movq	%rax, %rdi
	movl	$0, %eax
	call	error_tok@PLT
.L110:
	.loc 1 434 11
	movq	-24(%rbp), %rax
	movq	16(%rax), %rax
	.loc 1 434 17
	movq	16(%rax), %rax
	.loc 1 434 6
	testq	%rax, %rax
	jne	.L111
	.loc 1 434 30 discriminator 1
	movq	-32(%rbp), %rax
	movq	16(%rax), %rax
	.loc 1 434 36 discriminator 1
	movq	16(%rax), %rax
	.loc 1 434 24 discriminator 1
	testq	%rax, %rax
	je	.L111
.LBB14:
	.loc 1 435 11
	movq	-24(%rbp), %rax
	movq	%rax, -8(%rbp)
	.loc 1 436 9
	movq	-32(%rbp), %rax
	movq	%rax, -24(%rbp)
	.loc 1 437 9
	movq	-8(%rbp), %rax
	movq	%rax, -32(%rbp)
.L111:
.LBE14:
	.loc 1 441 56
	movq	-24(%rbp), %rax
	movq	16(%rax), %rax
	.loc 1 441 62
	movq	16(%rax), %rax
	.loc 1 441 9
	movl	4(%rax), %eax
	movq	-40(%rbp), %rdx
	movq	%rdx, %rsi
	movl	%eax, %edi
	call	new_num_node@PLT
	movq	%rax, %rsi
	movq	-40(%rbp), %rdx
	movq	-32(%rbp), %rax
	movq	%rdx, %rcx
	movq	%rsi, %rdx
	movq	%rax, %rsi
	movl	$2, %edi
	call	new_binary_node@PLT
	movq	%rax, -32(%rbp)
	.loc 1 443 10
	movq	-40(%rbp), %rcx
	movq	-32(%rbp), %rdx
	movq	-24(%rbp), %rax
	movq	%rax, %rsi
	movl	$0, %edi
	call	new_binary_node@PLT
.L109:
	.loc 1 444 1
	leave
	.cfi_def_cfa 7, 8
	ret
	.cfi_endproc
.LFE32:
	.size	new_add, .-new_add
	.type	new_sub, @function
new_sub:
.LFB33:
	.loc 1 447 62
	.cfi_startproc
	endbr64
	pushq	%rbp
	.cfi_def_cfa_offset 16
	.cfi_offset 6, -16
	movq	%rsp, %rbp
	.cfi_def_cfa_register 6
	subq	$48, %rsp
	movq	%rdi, -24(%rbp)
	movq	%rsi, -32(%rbp)
	movq	%rdx, -40(%rbp)
	.loc 1 448 3
	movq	-24(%rbp), %rax
	movq	%rax, %rdi
	call	add_type@PLT
	.loc 1 449 3
	movq	-32(%rbp), %rax
	movq	%rax, %rdi
	call	add_type@PLT
	.loc 1 452 21
	movq	-24(%rbp), %rax
	movq	16(%rax), %rax
	.loc 1 452 7
	movq	%rax, %rdi
	call	is_integer@PLT
	.loc 1 452 6
	testb	%al, %al
	je	.L113
	.loc 1 452 46 discriminator 1
	movq	-32(%rbp), %rax
	movq	16(%rax), %rax
	.loc 1 452 32 discriminator 1
	movq	%rax, %rdi
	call	is_integer@PLT
	.loc 1 452 29 discriminator 1
	testb	%al, %al
	je	.L113
	.loc 1 453 12
	movq	-40(%rbp), %rcx
	movq	-32(%rbp), %rdx
	movq	-24(%rbp), %rax
	movq	%rax, %rsi
	movl	$1, %edi
	call	new_binary_node@PLT
	jmp	.L114
.L113:
	.loc 1 456 10
	movq	-24(%rbp), %rax
	movq	16(%rax), %rax
	.loc 1 456 16
	movq	16(%rax), %rax
	.loc 1 456 6
	testq	%rax, %rax
	je	.L115
	.loc 1 456 40 discriminator 1
	movq	-32(%rbp), %rax
	movq	16(%rax), %rax
	.loc 1 456 26 discriminator 1
	movq	%rax, %rdi
	call	is_integer@PLT
	.loc 1 456 23 discriminator 1
	testb	%al, %al
	je	.L115
.LBB15:
	.loc 1 458 56
	movq	-24(%rbp), %rax
	movq	16(%rax), %rax
	.loc 1 458 62
	movq	16(%rax), %rax
	.loc 1 458 9
	movl	4(%rax), %eax
	movq	-40(%rbp), %rdx
	movq	%rdx, %rsi
	movl	%eax, %edi
	call	new_num_node@PLT
	movq	%rax, %rsi
	movq	-40(%rbp), %rdx
	movq	-32(%rbp), %rax
	movq	%rdx, %rcx
	movq	%rsi, %rdx
	movq	%rax, %rsi
	movl	$2, %edi
	call	new_binary_node@PLT
	movq	%rax, -32(%rbp)
	.loc 1 460 5
	movq	-32(%rbp), %rax
	movq	%rax, %rdi
	call	add_type@PLT
	.loc 1 461 18
	movq	-40(%rbp), %rcx
	movq	-32(%rbp), %rdx
	movq	-24(%rbp), %rax
	movq	%rax, %rsi
	movl	$1, %edi
	call	new_binary_node@PLT
	movq	%rax, -16(%rbp)
	.loc 1 462 21
	movq	-24(%rbp), %rax
	movq	16(%rax), %rdx
	.loc 1 462 16
	movq	-16(%rbp), %rax
	movq	%rdx, 16(%rax)
	.loc 1 463 12
	movq	-16(%rbp), %rax
	jmp	.L114
.L115:
.LBE15:
	.loc 1 467 10
	movq	-24(%rbp), %rax
	movq	16(%rax), %rax
	.loc 1 467 16
	movq	16(%rax), %rax
	.loc 1 467 6
	testq	%rax, %rax
	je	.L116
	.loc 1 467 29 discriminator 1
	movq	-32(%rbp), %rax
	movq	16(%rax), %rax
	.loc 1 467 35 discriminator 1
	movq	16(%rax), %rax
	.loc 1 467 23 discriminator 1
	testq	%rax, %rax
	je	.L116
.LBB16:
	.loc 1 468 18
	movq	-40(%rbp), %rcx
	movq	-32(%rbp), %rdx
	movq	-24(%rbp), %rax
	movq	%rax, %rsi
	movl	$1, %edi
	call	new_binary_node@PLT
	movq	%rax, -8(%rbp)
	.loc 1 469 18
	movl	$0, %eax
	call	int_type@PLT
	.loc 1 469 16
	movq	-8(%rbp), %rdx
	movq	%rax, 16(%rdx)
	.loc 1 473 44
	movq	-24(%rbp), %rax
	movq	16(%rax), %rax
	.loc 1 473 50
	movq	16(%rax), %rax
	.loc 1 472 12
	movl	4(%rax), %eax
	movq	-40(%rbp), %rdx
	movq	%rdx, %rsi
	movl	%eax, %edi
	call	new_num_node@PLT
	movq	%rax, %rsi
	movq	-40(%rbp), %rdx
	movq	-8(%rbp), %rax
	movq	%rdx, %rcx
	movq	%rsi, %rdx
	movq	%rax, %rsi
	movl	$3, %edi
	call	new_binary_node@PLT
	jmp	.L114
.L116:
.LBE16:
	.loc 1 476 3
	movq	-40(%rbp), %rax
	leaq	.LC4(%rip), %rsi
	movq	%rax, %rdi
	movl	$0, %eax
	call	error_tok@PLT
	.loc 1 477 10
	movl	$0, %eax
.L114:
	.loc 1 478 1
	leave
	.cfi_def_cfa 7, 8
	ret
	.cfi_endproc
.LFE33:
	.size	new_sub, .-new_sub
	.type	term, @function
term:
.LFB34:
	.loc 1 481 57
	.cfi_startproc
	endbr64
	pushq	%rbp
	.cfi_def_cfa_offset 16
	.cfi_offset 6, -16
	movq	%rsp, %rbp
	.cfi_def_cfa_register 6
	subq	$32, %rsp
	movq	%rdi, -24(%rbp)
	movq	%rsi, -32(%rbp)
	.loc 1 482 16
	movq	-32(%rbp), %rdx
	leaq	-32(%rbp), %rax
	movq	%rdx, %rsi
	movq	%rax, %rdi
	call	factor
	movq	%rax, -16(%rbp)
.L122:
.LBB17:
	.loc 1 485 18
	movq	-32(%rbp), %rax
	movq	%rax, -8(%rbp)
	.loc 1 487 9
	movq	-32(%rbp), %rax
	movl	$18, %esi
	movq	%rax, %rdi
	call	check@PLT
	.loc 1 487 8
	testb	%al, %al
	je	.L118
	.loc 1 488 44
	movq	-32(%rbp), %rax
	movq	8(%rax), %rdx
	.loc 1 488 14
	leaq	-32(%rbp), %rax
	movq	%rdx, %rsi
	movq	%rax, %rdi
	call	factor
	movq	%rax, %rcx
	movq	-8(%rbp), %rdx
	movq	-16(%rbp), %rax
	movq	%rcx, %rsi
	movq	%rax, %rdi
	call	new_add
	movq	%rax, -16(%rbp)
	.loc 1 489 7
	jmp	.L119
.L118:
	.loc 1 492 9
	movq	-32(%rbp), %rax
	movl	$17, %esi
	movq	%rax, %rdi
	call	check@PLT
	.loc 1 492 8
	testb	%al, %al
	je	.L120
	.loc 1 493 44
	movq	-32(%rbp), %rax
	movq	8(%rax), %rdx
	.loc 1 493 14
	leaq	-32(%rbp), %rax
	movq	%rdx, %rsi
	movq	%rax, %rdi
	call	factor
	movq	%rax, %rcx
	movq	-8(%rbp), %rdx
	movq	-16(%rbp), %rax
	movq	%rcx, %rsi
	movq	%rax, %rdi
	call	new_sub
	movq	%rax, -16(%rbp)
	.loc 1 494 7
	jmp	.L119
.L120:
	.loc 1 497 11
	movq	-32(%rbp), %rdx
	movq	-24(%rbp), %rax
	movq	%rdx, (%rax)
	.loc 1 498 12
	movq	-16(%rbp), %rax
	jmp	.L123
.L119:
.LBE17:
	.loc 1 484 12
	jmp	.L122
.L123:
	.loc 1 500 1 discriminator 1
	leave
	.cfi_def_cfa 7, 8
	ret
	.cfi_endproc
.LFE34:
	.size	term, .-term
	.type	factor, @function
factor:
.LFB35:
	.loc 1 503 59
	.cfi_startproc
	endbr64
	pushq	%rbp
	.cfi_def_cfa_offset 16
	.cfi_offset 6, -16
	movq	%rsp, %rbp
	.cfi_def_cfa_register 6
	subq	$32, %rsp
	movq	%rdi, -24(%rbp)
	movq	%rsi, -32(%rbp)
	.loc 1 504 16
	movq	-32(%rbp), %rdx
	leaq	-32(%rbp), %rax
	movq	%rdx, %rsi
	movq	%rax, %rdi
	call	unary
	movq	%rax, -16(%rbp)
.L129:
.LBB18:
	.loc 1 507 18
	movq	-32(%rbp), %rax
	movq	%rax, -8(%rbp)
	.loc 1 508 9
	movq	-32(%rbp), %rax
	movl	$21, %esi
	movq	%rax, %rdi
	call	check@PLT
	.loc 1 508 8
	testb	%al, %al
	je	.L125
	.loc 1 509 61
	movq	-32(%rbp), %rax
	movq	8(%rax), %rdx
	.loc 1 509 14
	leaq	-32(%rbp), %rax
	movq	%rdx, %rsi
	movq	%rax, %rdi
	call	unary
	movq	%rax, %rsi
	movq	-8(%rbp), %rdx
	movq	-16(%rbp), %rax
	movq	%rdx, %rcx
	movq	%rsi, %rdx
	movq	%rax, %rsi
	movl	$2, %edi
	call	new_binary_node@PLT
	movq	%rax, -16(%rbp)
	.loc 1 510 7
	jmp	.L126
.L125:
	.loc 1 513 9
	movq	-32(%rbp), %rax
	movl	$20, %esi
	movq	%rax, %rdi
	call	check@PLT
	.loc 1 513 8
	testb	%al, %al
	je	.L127
	.loc 1 514 61
	movq	-32(%rbp), %rax
	movq	8(%rax), %rdx
	.loc 1 514 14
	leaq	-32(%rbp), %rax
	movq	%rdx, %rsi
	movq	%rax, %rdi
	call	unary
	movq	%rax, %rsi
	movq	-8(%rbp), %rdx
	movq	-16(%rbp), %rax
	movq	%rdx, %rcx
	movq	%rsi, %rdx
	movq	%rax, %rsi
	movl	$3, %edi
	call	new_binary_node@PLT
	movq	%rax, -16(%rbp)
	.loc 1 515 7
	jmp	.L126
.L127:
	.loc 1 518 11
	movq	-32(%rbp), %rdx
	movq	-24(%rbp), %rax
	movq	%rdx, (%rax)
	.loc 1 519 12
	movq	-16(%rbp), %rax
	jmp	.L130
.L126:
.LBE18:
	.loc 1 506 12
	jmp	.L129
.L130:
	.loc 1 521 1 discriminator 1
	leave
	.cfi_def_cfa 7, 8
	ret
	.cfi_endproc
.LFE35:
	.size	factor, .-factor
	.type	unary, @function
unary:
.LFB36:
	.loc 1 525 58
	.cfi_startproc
	endbr64
	pushq	%rbp
	.cfi_def_cfa_offset 16
	.cfi_offset 6, -16
	movq	%rsp, %rbp
	.cfi_def_cfa_register 6
	subq	$16, %rsp
	movq	%rdi, -8(%rbp)
	movq	%rsi, -16(%rbp)
	.loc 1 526 7
	movq	-16(%rbp), %rax
	movl	$18, %esi
	movq	%rax, %rdi
	call	check@PLT
	.loc 1 526 6
	testb	%al, %al
	je	.L132
	.loc 1 527 27
	movq	-16(%rbp), %rax
	movq	8(%rax), %rdx
	.loc 1 527 12
	movq	-8(%rbp), %rax
	movq	%rdx, %rsi
	movq	%rax, %rdi
	call	unary
	jmp	.L133
.L132:
	.loc 1 529 7
	movq	-16(%rbp), %rax
	movl	$17, %esi
	movq	%rax, %rdi
	call	check@PLT
	.loc 1 529 6
	testb	%al, %al
	je	.L134
	.loc 1 530 52
	movq	-16(%rbp), %rax
	movq	8(%rax), %rdx
	.loc 1 530 12
	movq	-8(%rbp), %rax
	movq	%rdx, %rsi
	movq	%rax, %rdi
	call	unary
	movq	%rax, %rcx
	movq	-16(%rbp), %rax
	movq	%rax, %rdx
	movq	%rcx, %rsi
	movl	$0, %edi
	call	new_unary_node@PLT
	jmp	.L133
.L134:
	.loc 1 531 7
	movq	-16(%rbp), %rax
	movl	$24, %esi
	movq	%rax, %rdi
	call	check@PLT
	.loc 1 531 6
	testb	%al, %al
	je	.L135
	.loc 1 532 53
	movq	-16(%rbp), %rax
	movq	8(%rax), %rdx
	.loc 1 532 12
	movq	-8(%rbp), %rax
	movq	%rdx, %rsi
	movq	%rax, %rdi
	call	unary
	movq	%rax, %rcx
	movq	-16(%rbp), %rax
	movq	%rax, %rdx
	movq	%rcx, %rsi
	movl	$1, %edi
	call	new_unary_node@PLT
	jmp	.L133
.L135:
	.loc 1 533 7
	movq	-16(%rbp), %rax
	movl	$21, %esi
	movq	%rax, %rdi
	call	check@PLT
	.loc 1 533 6
	testb	%al, %al
	je	.L136
	.loc 1 534 54
	movq	-16(%rbp), %rax
	movq	8(%rax), %rdx
	.loc 1 534 12
	movq	-8(%rbp), %rax
	movq	%rdx, %rsi
	movq	%rax, %rdi
	call	unary
	movq	%rax, %rcx
	movq	-16(%rbp), %rax
	movq	%rax, %rdx
	movq	%rcx, %rsi
	movl	$2, %edi
	call	new_unary_node@PLT
	jmp	.L133
.L136:
	.loc 1 536 10
	movq	-16(%rbp), %rdx
	movq	-8(%rbp), %rax
	movq	%rdx, %rsi
	movq	%rax, %rdi
	call	postfix
.L133:
	.loc 1 537 1
	leave
	.cfi_def_cfa 7, 8
	ret
	.cfi_endproc
.LFE36:
	.size	unary, .-unary
	.type	postfix, @function
postfix:
.LFB37:
	.loc 1 540 60
	.cfi_startproc
	endbr64
	pushq	%rbp
	.cfi_def_cfa_offset 16
	.cfi_offset 6, -16
	movq	%rsp, %rbp
	.cfi_def_cfa_register 6
	subq	$48, %rsp
	movq	%rdi, -40(%rbp)
	movq	%rsi, -48(%rbp)
	.loc 1 541 16
	movq	-48(%rbp), %rdx
	leaq	-48(%rbp), %rax
	movq	%rdx, %rsi
	movq	%rax, %rdi
	call	primary
	movq	%rax, -24(%rbp)
	.loc 1 543 9
	jmp	.L138
.L139:
.LBB19:
	.loc 1 545 18
	movq	-48(%rbp), %rax
	movq	%rax, -16(%rbp)
	.loc 1 546 31
	movq	-48(%rbp), %rax
	movq	8(%rax), %rdx
	.loc 1 546 17
	leaq	-48(%rbp), %rax
	movq	%rdx, %rsi
	movq	%rax, %rdi
	call	expr
	movq	%rax, -8(%rbp)
	.loc 1 547 11
	movq	-48(%rbp), %rax
	movl	$10, %esi
	movq	%rax, %rdi
	call	consume@PLT
	.loc 1 547 9
	movq	%rax, -48(%rbp)
	.loc 1 548 12
	movq	-16(%rbp), %rdx
	movq	-8(%rbp), %rcx
	movq	-24(%rbp), %rax
	movq	%rcx, %rsi
	movq	%rax, %rdi
	call	new_add
	movq	%rax, %rcx
	movq	-16(%rbp), %rax
	movq	%rax, %rdx
	movq	%rcx, %rsi
	movl	$2, %edi
	call	new_unary_node@PLT
	movq	%rax, -24(%rbp)
.L138:
.LBE19:
	.loc 1 543 10
	movq	-48(%rbp), %rax
	movl	$9, %esi
	movq	%rax, %rdi
	call	check@PLT
	.loc 1 543 9
	testb	%al, %al
	jne	.L139
	.loc 1 550 9
	movq	-48(%rbp), %rdx
	movq	-40(%rbp), %rax
	movq	%rdx, (%rax)
	.loc 1 551 10
	movq	-24(%rbp), %rax
	.loc 1 552 1
	leave
	.cfi_def_cfa 7, 8
	ret
	.cfi_endproc
.LFE37:
	.size	postfix, .-postfix
	.type	funcall, @function
funcall:
.LFB38:
	.loc 1 555 60
	.cfi_startproc
	endbr64
	pushq	%rbp
	.cfi_def_cfa_offset 16
	.cfi_offset 6, -16
	movq	%rsp, %rbp
	.cfi_def_cfa_register 6
	pushq	%r12
	pushq	%rbx
	subq	$96, %rsp
	.cfi_offset 12, -24
	.cfi_offset 3, -32
	movq	%rdi, -104(%rbp)
	movq	%rsi, -112(%rbp)
	.loc 1 555 60
	movq	%fs:40, %rax
	movq	%rax, -24(%rbp)
	xorl	%eax, %eax
	.loc 1 556 16
	movq	-112(%rbp), %rax
	movq	%rax, -80(%rbp)
	.loc 1 557 12
	movq	-112(%rbp), %rax
	movq	8(%rax), %rax
	.loc 1 557 18
	movq	8(%rax), %rax
	.loc 1 557 7
	movq	%rax, -112(%rbp)
	.loc 1 559 8
	movq	$0, -64(%rbp)
	movq	$0, -56(%rbp)
	movq	$0, -48(%rbp)
	movq	$0, -40(%rbp)
	.loc 1 560 9
	leaq	-64(%rbp), %rax
	movq	%rax, -88(%rbp)
	.loc 1 562 9
	jmp	.L142
.L144:
	.loc 1 563 8
	leaq	-64(%rbp), %rax
	cmpq	%rax, -88(%rbp)
	je	.L143
	.loc 1 564 13
	movq	-112(%rbp), %rax
	movl	$15, %esi
	movq	%rax, %rdi
	call	consume@PLT
	.loc 1 564 11
	movq	%rax, -112(%rbp)
.L143:
	.loc 1 565 23
	movq	-112(%rbp), %rdx
	leaq	-112(%rbp), %rax
	movq	%rdx, %rsi
	movq	%rax, %rdi
	call	assign
	.loc 1 565 21
	movq	-88(%rbp), %rdx
	movq	%rax, 8(%rdx)
	.loc 1 565 9
	movq	-88(%rbp), %rax
	movq	8(%rax), %rax
	movq	%rax, -88(%rbp)
.L142:
	.loc 1 562 11
	movq	-112(%rbp), %rax
	movl	$12, %esi
	movq	%rax, %rdi
	call	check@PLT
	.loc 1 562 10
	xorl	$1, %eax
	.loc 1 562 9
	testb	%al, %al
	jne	.L144
	.loc 1 568 11
	movq	-112(%rbp), %rax
	movl	$12, %esi
	movq	%rax, %rdi
	call	consume@PLT
	.loc 1 568 9
	movq	-104(%rbp), %rdx
	movq	%rax, (%rdx)
	.loc 1 570 16
	movq	-56(%rbp), %r12
	movq	-80(%rbp), %rax
	movl	32(%rax), %ebx
	.loc 1 570 59
	movq	-80(%rbp), %rax
	movl	32(%rax), %eax
	.loc 1 570 34
	movslq	%eax, %rdx
	movq	-80(%rbp), %rax
	movq	24(%rax), %rax
	movq	%rdx, %rsi
	movq	%rax, %rdi
	call	strndup@PLT
	movq	%rax, %rdi
	.loc 1 570 16
	movq	-80(%rbp), %rax
	movq	%rax, %rcx
	movq	%r12, %rdx
	movl	%ebx, %esi
	call	new_fun_call_node@PLT
	movq	%rax, -72(%rbp)
	.loc 1 575 10
	movq	-72(%rbp), %rax
	.loc 1 576 1
	movq	-24(%rbp), %rcx
	xorq	%fs:40, %rcx
	je	.L146
	call	__stack_chk_fail@PLT
.L146:
	addq	$96, %rsp
	popq	%rbx
	popq	%r12
	popq	%rbp
	.cfi_def_cfa 7, 8
	ret
	.cfi_endproc
.LFE38:
	.size	funcall, .-funcall
	.section	.rodata
.LC5:
	.string	"undefined variable"
.LC6:
	.string	"expected an expression"
	.text
	.type	primary, @function
primary:
.LFB39:
	.loc 1 584 60
	.cfi_startproc
	endbr64
	pushq	%rbp
	.cfi_def_cfa_offset 16
	.cfi_offset 6, -16
	movq	%rsp, %rbp
	.cfi_def_cfa_register 6
	subq	$80, %rsp
	movq	%rdi, -72(%rbp)
	movq	%rsi, -80(%rbp)
	.loc 1 585 7
	movq	-80(%rbp), %rax
	movl	$11, %esi
	movq	%rax, %rdi
	call	check@PLT
	.loc 1 585 6
	testb	%al, %al
	je	.L148
	.loc 1 585 48 discriminator 1
	movq	-80(%rbp), %rax
	movq	8(%rax), %rax
	.loc 1 585 39 discriminator 1
	movl	$13, %esi
	movq	%rax, %rdi
	call	check@PLT
	.loc 1 585 36 discriminator 1
	testb	%al, %al
	je	.L148
.LBB20:
	.loc 1 587 18
	movq	-80(%rbp), %rax
	movq	%rax, -56(%rbp)
	.loc 1 589 52
	movq	-80(%rbp), %rax
	movq	8(%rax), %rax
	.loc 1 589 58
	movq	8(%rax), %rdx
	.loc 1 589 29
	leaq	-80(%rbp), %rax
	movq	%rdx, %rsi
	movq	%rax, %rdi
	call	compound_stmt
	movq	%rax, -48(%rbp)
	.loc 1 590 13
	movq	-80(%rbp), %rax
	movl	$12, %esi
	movq	%rax, %rdi
	call	consume@PLT
	.loc 1 590 11
	movq	-72(%rbp), %rdx
	movq	%rax, (%rdx)
	.loc 1 591 12
	movq	-48(%rbp), %rax
	movq	32(%rax), %rax
	movq	-56(%rbp), %rdx
	movq	%rax, %rsi
	movl	$4, %edi
	call	new_unary_node@PLT
	jmp	.L149
.L148:
.LBE20:
	.loc 1 594 7
	movq	-80(%rbp), %rax
	movl	$11, %esi
	movq	%rax, %rdi
	call	check@PLT
	.loc 1 594 6
	testb	%al, %al
	je	.L150
.LBB21:
	.loc 1 595 32
	movq	-80(%rbp), %rax
	movq	8(%rax), %rdx
	.loc 1 595 18
	leaq	-80(%rbp), %rax
	movq	%rdx, %rsi
	movq	%rax, %rdi
	call	expr
	movq	%rax, -8(%rbp)
	.loc 1 596 13
	movq	-80(%rbp), %rax
	movl	$12, %esi
	movq	%rax, %rdi
	call	consume@PLT
	.loc 1 596 11
	movq	-72(%rbp), %rdx
	movq	%rax, (%rdx)
	.loc 1 597 12
	movq	-8(%rbp), %rax
	jmp	.L149
.L150:
.LBE21:
	.loc 1 600 7
	movq	-80(%rbp), %rax
	movl	$7, %esi
	movq	%rax, %rdi
	call	check@PLT
	.loc 1 600 6
	testb	%al, %al
	je	.L151
.LBB22:
	.loc 1 601 33
	movq	-80(%rbp), %rax
	movq	8(%rax), %rdx
	.loc 1 601 18
	movq	-72(%rbp), %rax
	movq	%rdx, %rsi
	movq	%rax, %rdi
	call	unary
	movq	%rax, -16(%rbp)
	.loc 1 602 5
	movq	-16(%rbp), %rax
	movq	%rax, %rdi
	call	add_type@PLT
	.loc 1 603 12
	movq	-80(%rbp), %rdx
	.loc 1 603 29
	movq	-16(%rbp), %rax
	movq	16(%rax), %rax
	.loc 1 603 12
	movl	4(%rax), %eax
	movq	%rdx, %rsi
	movl	%eax, %edi
	call	new_num_node@PLT
	jmp	.L149
.L151:
.LBE22:
	.loc 1 606 7
	movq	-80(%rbp), %rax
	movl	$35, %esi
	movq	%rax, %rdi
	call	check@PLT
	.loc 1 606 6
	testb	%al, %al
	je	.L152
.LBB23:
	.loc 1 608 18
	movq	-80(%rbp), %rax
	movq	8(%rax), %rax
	.loc 1 608 9
	movl	$11, %esi
	movq	%rax, %rdi
	call	check@PLT
	.loc 1 608 8
	testb	%al, %al
	je	.L153
	.loc 1 609 14
	movq	-80(%rbp), %rdx
	movq	-72(%rbp), %rax
	movq	%rdx, %rsi
	movq	%rax, %rdi
	call	funcall
	jmp	.L149
.L153:
	.loc 1 612 22
	movq	-80(%rbp), %rax
	movq	%rax, %rdi
	call	find_var
	movq	%rax, -24(%rbp)
	.loc 1 613 8
	cmpq	$0, -24(%rbp)
	jne	.L154
	.loc 1 614 7
	movq	-80(%rbp), %rax
	leaq	.LC5(%rip), %rsi
	movq	%rax, %rdi
	movl	$0, %eax
	call	error_tok@PLT
.L154:
	.loc 1 616 16
	movq	-80(%rbp), %rax
	movq	8(%rax), %rdx
	.loc 1 616 11
	movq	-72(%rbp), %rax
	movq	%rdx, (%rax)
	.loc 1 617 12
	movq	-80(%rbp), %rdx
	movq	-24(%rbp), %rax
	movq	%rdx, %rsi
	movq	%rax, %rdi
	call	new_var_node@PLT
	jmp	.L149
.L152:
.LBE23:
	.loc 1 620 7
	movq	-80(%rbp), %rax
	movl	$36, %esi
	movq	%rax, %rdi
	call	check@PLT
	.loc 1 620 6
	testb	%al, %al
	je	.L155
.LBB24:
	.loc 1 621 48
	movq	-80(%rbp), %rax
	movq	40(%rax), %rdx
	.loc 1 621 38
	movq	-80(%rbp), %rax
	.loc 1 621 16
	movq	48(%rax), %rax
	movq	%rdx, %rsi
	movq	%rax, %rdi
	call	new_string_literal
	movq	%rax, -32(%rbp)
	.loc 1 622 16
	movq	-80(%rbp), %rax
	movq	8(%rax), %rdx
	.loc 1 622 11
	movq	-72(%rbp), %rax
	movq	%rdx, (%rax)
	.loc 1 623 12
	movq	-80(%rbp), %rdx
	movq	-32(%rbp), %rax
	movq	%rdx, %rsi
	movq	%rax, %rdi
	call	new_var_node@PLT
	jmp	.L149
.L155:
.LBE24:
	.loc 1 626 7
	movq	-80(%rbp), %rax
	movl	$37, %esi
	movq	%rax, %rdi
	call	check@PLT
	.loc 1 626 6
	testb	%al, %al
	je	.L156
.LBB25:
	.loc 1 627 18
	movq	-80(%rbp), %rdx
	.loc 1 627 34
	movq	-80(%rbp), %rax
	.loc 1 627 18
	movl	16(%rax), %eax
	movq	%rdx, %rsi
	movl	%eax, %edi
	call	new_num_node@PLT
	movq	%rax, -40(%rbp)
	.loc 1 628 16
	movq	-80(%rbp), %rax
	movq	8(%rax), %rdx
	.loc 1 628 11
	movq	-72(%rbp), %rax
	movq	%rdx, (%rax)
	.loc 1 629 12
	movq	-40(%rbp), %rax
	jmp	.L149
.L156:
.LBE25:
	.loc 1 632 3
	movq	-80(%rbp), %rax
	leaq	.LC6(%rip), %rsi
	movq	%rax, %rdi
	movl	$0, %eax
	call	error_tok@PLT
	.loc 1 633 10
	movl	$0, %eax
.L149:
	.loc 1 634 1
	leave
	.cfi_def_cfa 7, 8
	ret
	.cfi_endproc
.LFE39:
	.size	primary, .-primary
	.type	create_param_lvars, @function
create_param_lvars:
.LFB40:
	.loc 1 636 45
	.cfi_startproc
	endbr64
	pushq	%rbp
	.cfi_def_cfa_offset 16
	.cfi_offset 6, -16
	movq	%rsp, %rbp
	.cfi_def_cfa_register 6
	pushq	%rbx
	subq	$24, %rsp
	.cfi_offset 3, -24
	movq	%rdi, -24(%rbp)
	.loc 1 637 6
	cmpq	$0, -24(%rbp)
	je	.L159
	.loc 1 638 5
	movq	-24(%rbp), %rax
	movq	48(%rax), %rax
	movq	%rax, %rdi
	call	create_param_lvars
	.loc 1 639 50
	movq	-24(%rbp), %rax
	movq	24(%rax), %rax
	.loc 1 639 5
	movl	32(%rax), %ebx
	.loc 1 639 36
	movq	-24(%rbp), %rax
	movq	24(%rax), %rax
	.loc 1 639 5
	movq	%rax, %rdi
	call	get_ident
	movq	%rax, %rcx
	movq	-24(%rbp), %rax
	movl	%ebx, %edx
	movq	%rcx, %rsi
	movq	%rax, %rdi
	call	new_lvar
.L159:
	.loc 1 641 1
	nop
	addq	$24, %rsp
	popq	%rbx
	popq	%rbp
	.cfi_def_cfa 7, 8
	ret
	.cfi_endproc
.LFE40:
	.size	create_param_lvars, .-create_param_lvars
	.type	function, @function
function:
.LFB41:
	.loc 1 643 65
	.cfi_startproc
	endbr64
	pushq	%rbp
	.cfi_def_cfa_offset 16
	.cfi_offset 6, -16
	movq	%rsp, %rbp
	.cfi_def_cfa_register 6
	pushq	%rbx
	subq	$40, %rsp
	.cfi_offset 3, -24
	movq	%rdi, -40(%rbp)
	movq	%rsi, -48(%rbp)
	.loc 1 644 16
	movq	-40(%rbp), %rcx
	movq	-48(%rbp), %rdx
	leaq	-40(%rbp), %rax
	movq	%rcx, %rsi
	movq	%rax, %rdi
	call	declarator
	movq	%rax, -32(%rbp)
	.loc 1 646 55
	movq	-32(%rbp), %rax
	movq	24(%rax), %rax
	.loc 1 646 13
	movl	32(%rax), %ebx
	.loc 1 646 42
	movq	-32(%rbp), %rax
	movq	24(%rax), %rax
	.loc 1 646 13
	movq	%rax, %rdi
	call	get_ident
	movq	%rax, %rcx
	movq	-32(%rbp), %rax
	movl	%ebx, %edx
	movq	%rcx, %rsi
	movq	%rax, %rdi
	call	new_gvar
	movq	%rax, -24(%rbp)
	.loc 1 647 19
	movq	-24(%rbp), %rax
	movb	$1, 40(%rax)
	.loc 1 649 10
	movq	$0, locals(%rip)
	.loc 1 650 3
	call	enter_scope
	.loc 1 651 3
	movq	-32(%rbp), %rax
	movq	40(%rax), %rax
	movq	%rax, %rdi
	call	create_param_lvars
	.loc 1 652 14
	movq	locals(%rip), %rdx
	movq	-24(%rbp), %rax
	movq	%rdx, 56(%rax)
	.loc 1 654 9
	movq	-40(%rbp), %rax
	movl	$13, %esi
	movq	%rax, %rdi
	call	consume@PLT
	.loc 1 654 7
	movq	%rax, -40(%rbp)
	.loc 1 655 22
	movq	-40(%rbp), %rdx
	leaq	-40(%rbp), %rax
	movq	%rdx, %rsi
	movq	%rax, %rdi
	call	compound_stmt
	.loc 1 655 12
	movq	-24(%rbp), %rdx
	movq	%rax, 64(%rdx)
	.loc 1 656 14
	movq	locals(%rip), %rdx
	movq	-24(%rbp), %rax
	movq	%rdx, 72(%rax)
	.loc 1 657 3
	call	leave_scope
	.loc 1 658 10
	movq	-40(%rbp), %rax
	.loc 1 659 1
	addq	$40, %rsp
	popq	%rbx
	popq	%rbp
	.cfi_def_cfa 7, 8
	ret
	.cfi_endproc
.LFE41:
	.size	function, .-function
	.type	global_variable, @function
global_variable:
.LFB42:
	.loc 1 661 72
	.cfi_startproc
	endbr64
	pushq	%rbp
	.cfi_def_cfa_offset 16
	.cfi_offset 6, -16
	movq	%rsp, %rbp
	.cfi_def_cfa_register 6
	pushq	%rbx
	subq	$40, %rsp
	.cfi_offset 3, -24
	movq	%rdi, -40(%rbp)
	movq	%rsi, -48(%rbp)
	.loc 1 662 8
	movb	$1, -25(%rbp)
	.loc 1 664 9
	jmp	.L163
.L165:
.LBB26:
	.loc 1 665 9
	movzbl	-25(%rbp), %eax
	xorl	$1, %eax
	.loc 1 665 8
	testb	%al, %al
	je	.L164
	.loc 1 666 13
	movq	-40(%rbp), %rax
	movl	$15, %esi
	movq	%rax, %rdi
	call	consume@PLT
	.loc 1 666 11
	movq	%rax, -40(%rbp)
.L164:
	.loc 1 669 11
	movb	$0, -25(%rbp)
	.loc 1 671 18
	movq	-40(%rbp), %rcx
	movq	-48(%rbp), %rdx
	leaq	-40(%rbp), %rax
	movq	%rcx, %rsi
	movq	%rax, %rdi
	call	declarator
	movq	%rax, -24(%rbp)
	.loc 1 672 47
	movq	-24(%rbp), %rax
	movq	24(%rax), %rax
	.loc 1 672 5
	movl	32(%rax), %ebx
	.loc 1 672 34
	movq	-24(%rbp), %rax
	movq	24(%rax), %rax
	.loc 1 672 5
	movq	%rax, %rdi
	call	get_ident
	movq	%rax, %rcx
	movq	-24(%rbp), %rax
	movl	%ebx, %edx
	movq	%rcx, %rsi
	movq	%rax, %rdi
	call	new_gvar
.L163:
.LBE26:
	.loc 1 664 11
	movq	-40(%rbp), %rcx
	leaq	-40(%rbp), %rax
	movl	$19, %edx
	movq	%rcx, %rsi
	movq	%rax, %rdi
	call	match@PLT
	.loc 1 664 10
	xorl	$1, %eax
	.loc 1 664 9
	testb	%al, %al
	jne	.L165
	.loc 1 674 10
	movq	-40(%rbp), %rax
	.loc 1 675 1
	addq	$40, %rsp
	popq	%rbx
	popq	%rbp
	.cfi_def_cfa 7, 8
	ret
	.cfi_endproc
.LFE42:
	.size	global_variable, .-global_variable
	.type	is_function, @function
is_function:
.LFB43:
	.loc 1 679 43
	.cfi_startproc
	endbr64
	pushq	%rbp
	.cfi_def_cfa_offset 16
	.cfi_offset 6, -16
	movq	%rsp, %rbp
	.cfi_def_cfa_register 6
	subq	$96, %rsp
	movq	%rdi, -88(%rbp)
	.loc 1 679 43
	movq	%fs:40, %rax
	movq	%rax, -8(%rbp)
	xorl	%eax, %eax
	.loc 1 680 7
	movq	-88(%rbp), %rax
	movl	$19, %esi
	movq	%rax, %rdi
	call	check@PLT
	.loc 1 680 6
	testb	%al, %al
	je	.L168
	.loc 1 681 12
	movl	$0, %eax
	jmp	.L170
.L168:
	.loc 1 684 8
	movq	$0, -64(%rbp)
	movq	$0, -56(%rbp)
	movq	$0, -48(%rbp)
	movq	$0, -40(%rbp)
	movq	$0, -32(%rbp)
	movq	$0, -24(%rbp)
	movq	$0, -16(%rbp)
	.loc 1 685 16
	movq	-88(%rbp), %rcx
	leaq	-64(%rbp), %rdx
	leaq	-88(%rbp), %rax
	movq	%rcx, %rsi
	movq	%rax, %rdi
	call	declarator
	movq	%rax, -72(%rbp)
	.loc 1 686 14
	movq	-72(%rbp), %rax
	movl	(%rax), %eax
	.loc 1 686 21
	cmpl	$3, %eax
	sete	%al
.L170:
	.loc 1 687 1 discriminator 1
	movq	-8(%rbp), %rcx
	xorq	%fs:40, %rcx
	je	.L171
	.loc 1 687 1 is_stmt 0
	call	__stack_chk_fail@PLT
.L171:
	leave
	.cfi_def_cfa 7, 8
	ret
	.cfi_endproc
.LFE43:
	.size	is_function, .-is_function
	.globl	parse
	.type	parse, @function
parse:
.LFB44:
	.loc 1 690 30 is_stmt 1
	.cfi_startproc
	endbr64
	pushq	%rbp
	.cfi_def_cfa_offset 16
	.cfi_offset 6, -16
	movq	%rsp, %rbp
	.cfi_def_cfa_register 6
	subq	$32, %rsp
	movq	%rdi, -24(%rbp)
	.loc 1 691 11
	movq	$0, globals(%rip)
	.loc 1 693 9
	jmp	.L173
.L175:
.LBB27:
	.loc 1 694 23
	movq	-24(%rbp), %rdx
	leaq	-24(%rbp), %rax
	movq	%rdx, %rsi
	movq	%rax, %rdi
	call	declspec
	movq	%rax, -8(%rbp)
	.loc 1 697 9
	movq	-24(%rbp), %rax
	movq	%rax, %rdi
	call	is_function
	.loc 1 697 8
	testb	%al, %al
	je	.L174
	.loc 1 698 13
	movq	-24(%rbp), %rax
	movq	-8(%rbp), %rdx
	movq	%rdx, %rsi
	movq	%rax, %rdi
	call	function
	.loc 1 698 11
	movq	%rax, -24(%rbp)
	.loc 1 699 7
	jmp	.L173
.L174:
	.loc 1 703 11
	movq	-24(%rbp), %rax
	movq	-8(%rbp), %rdx
	movq	%rdx, %rsi
	movq	%rax, %rdi
	call	global_variable
	.loc 1 703 9
	movq	%rax, -24(%rbp)
.L173:
.LBE27:
	.loc 1 693 11
	movq	-24(%rbp), %rax
	movl	$38, %esi
	movq	%rax, %rdi
	call	check@PLT
	.loc 1 693 10
	xorl	$1, %eax
	.loc 1 693 9
	testb	%al, %al
	jne	.L175
	.loc 1 705 10
	movq	globals(%rip), %rax
	.loc 1 706 1
	leave
	.cfi_def_cfa 7, 8
	ret
	.cfi_endproc
.LFE44:
	.size	parse, .-parse
	.local	id.3512
	.comm	id.3512,4,4
.Letext0:
	.file 2 "/usr/lib/gcc/x86_64-linux-gnu/9/include/stddef.h"
	.file 3 "tokenizer.h"
	.file 4 "type.h"
	.file 5 "ast_node.h"
	.file 6 "obj.h"
	.file 7 "/usr/include/x86_64-linux-gnu/bits/types.h"
	.file 8 "/usr/include/x86_64-linux-gnu/bits/types/struct_FILE.h"
	.file 9 "/usr/include/x86_64-linux-gnu/bits/types/FILE.h"
	.file 10 "/usr/include/stdio.h"
	.file 11 "/usr/include/x86_64-linux-gnu/bits/sys_errlist.h"
	.section	.note.GNU-stack,"",@progbits
	.section	.note.gnu.property,"a"
	.align 8
	.long	 1f - 0f
	.long	 4f - 1f
	.long	 5
0:
	.string	 "GNU"
1:
	.align 8
	.long	 0xc0000002
	.long	 3f - 2f
2:
	.long	 0x3
3:
	.align 8
4:
